---
triple:          'arm64-apple-darwin'
binary-path:     'build-ios-sim/framework/mtmd.framework/mtmd'
relocations:
  - { offset: 0x53, size: 0x8, addend: 0x0, symName: __ZL20PROJECTOR_TYPE_NAMES, symObjAddr: 0x218DE0, symBinAddr: 0xB4AA8, symSize: 0x0 }
  - { offset: 0x17EF5, size: 0x8, addend: 0x0, symName: __ZNSt3__119piecewise_constructE, symObjAddr: 0x1DFF5, symBinAddr: 0xA3D65, symSize: 0x0 }
  - { offset: 0x2CB50, size: 0x8, addend: 0x0, symName: __ZNSt3__125__throw_bad_function_callB9nqe210106Ev, symObjAddr: 0x1B5B0, symBinAddr: 0x1BE88, symSize: 0x34 }
  - { offset: 0x30475, size: 0x8, addend: 0x0, symName: __ZNSt3__120__throw_length_errorB9nqe210106EPKc, symObjAddr: 0x16E40, symBinAddr: 0x17718, symSize: 0x50 }
  - { offset: 0x30DE8, size: 0x8, addend: 0x0, symName: __ZNSt3__127__tree_balance_after_insertB9nqe210106IPNS_16__tree_node_baseIPvEEEEvT_S5_, symObjAddr: 0x19838, symBinAddr: 0x1A110, symSize: 0x1D4 }
  - { offset: 0x33476, size: 0x8, addend: 0x0, symName: __ZSt28__throw_bad_array_new_lengthB9nqe210106v, symObjAddr: 0x16EB4, symBinAddr: 0x1778C, symSize: 0x28 }
  - { offset: 0x33BA8, size: 0x8, addend: 0x0, symName: _g_logger_state, symObjAddr: 0x215D8, symBinAddr: 0xB4780, symSize: 0x0 }
  - { offset: 0x33C34, size: 0x8, addend: 0x0, symName: __ZTV10clip_graph, symObjAddr: 0x215E8, symBinAddr: 0xB00B0, symSize: 0x0 }
  - { offset: 0x373D7, size: 0x8, addend: 0x0, symName: __ZN17clip_model_loader6warmupER8clip_ctxRK20clip_image_f32_batch, symObjAddr: 0x15914, symBinAddr: 0x161F4, symSize: 0x53C }
  - { offset: 0x38022, size: 0x8, addend: 0x0, symName: __ZTVNSt3__117bad_function_callE, symObjAddr: 0x21640, symBinAddr: 0xB0108, symSize: 0x0 }
  - { offset: 0x3A0D4, size: 0x8, addend: 0x0, symName: __ZNSt3__13mapI14projector_typeNS_12basic_stringIcNS_11char_traitsIcEENS_9allocatorIcEEEENS_4lessIS1_EENS5_INS_4pairIKS1_S7_EEEEED1B9nqe210106Ev, symObjAddr: 0x0, symBinAddr: 0x8E0, symSize: 0x28 }
  - { offset: 0x3A192, size: 0x8, addend: 0x0, symName: __ZNSt3__16__treeINS_12__value_typeI14projector_typeNS_12basic_stringIcNS_11char_traitsIcEENS_9allocatorIcEEEEEENS_19__map_value_compareIS2_NS_4pairIKS2_S8_EENS_4lessIS2_EELb1EEENS6_ISD_EEE7destroyEPNS_11__tree_nodeIS9_PvEE, symObjAddr: 0x1B550, symBinAddr: 0x1BE28, symSize: 0x60 }
  - { offset: 0x3A3C3, size: 0x8, addend: 0x0, symName: __ZL25clip_log_callback_default14ggml_log_levelPKcPv, symObjAddr: 0x28, symBinAddr: 0x908, symSize: 0x30 }
  - { offset: 0x3A71F, size: 0x8, addend: 0x0, symName: __ZN10clip_graphC2EP8clip_ctxRK14clip_image_f32, symObjAddr: 0x58, symBinAddr: 0x938, symSize: 0x120 }
  - { offset: 0x3A8B2, size: 0x8, addend: 0x0, symName: __Z18clip_n_mmproj_embdPK8clip_ctx, symObjAddr: 0x178, symBinAddr: 0xA58, symSize: 0x114 }
  - { offset: 0x3A8E6, size: 0x8, addend: 0x0, symName: __ZNSt3__110unique_ptrI12ggml_context20ggml_context_deleterED1B9nqe210106Ev, symObjAddr: 0x28C, symBinAddr: 0xB6C, symSize: 0x34 }
  - { offset: 0x3A96B, size: 0x8, addend: 0x0, symName: __ZNSt3__110unique_ptrI12ggml_context20ggml_context_deleterED1B9nqe210106Ev, symObjAddr: 0x28C, symBinAddr: 0xB6C, symSize: 0x34 }
  - { offset: 0x3AA40, size: 0x8, addend: 0x0, symName: __ZNK10clip_graph8build_mmEP11ggml_tensorS1_, symObjAddr: 0x2C0, symBinAddr: 0xBA0, symSize: 0x8 }
  - { offset: 0x3AAC4, size: 0x8, addend: 0x0, symName: __ZNK10clip_graph2cbEP11ggml_tensorPKci, symObjAddr: 0x2C8, symBinAddr: 0xBA8, symSize: 0x38 }
  - { offset: 0x3AB53, size: 0x8, addend: 0x0, symName: __ZN10clip_graph26resize_position_embeddingsEj, symObjAddr: 0x300, symBinAddr: 0xBE0, symSize: 0xF8 }
  - { offset: 0x3AE9E, size: 0x8, addend: 0x0, symName: __ZN10clip_graph9build_vitEP11ggml_tensorx9norm_type11ffn_op_typeS1_NSt3__18functionIFS1_S1_RK10clip_layerEEE, symObjAddr: 0x3F8, symBinAddr: 0xCD8, symSize: 0xC08 }
  - { offset: 0x3C45D, size: 0x8, addend: 0x0, symName: __ZNK10clip_graph10build_normEP11ggml_tensorS1_S1_9norm_typefi, symObjAddr: 0x1000, symBinAddr: 0x18E0, symSize: 0x104 }
  - { offset: 0x3C4E5, size: 0x8, addend: 0x0, symName: __ZNK10clip_graph10build_normEP11ggml_tensorS1_S1_9norm_typefi, symObjAddr: 0x1000, symBinAddr: 0x18E0, symSize: 0x104 }
  - { offset: 0x3C690, size: 0x8, addend: 0x0, symName: __ZNK10clip_graph10build_attnEP11ggml_tensorS1_S1_S1_S1_S1_fi, symObjAddr: 0x1104, symBinAddr: 0x19E4, symSize: 0x290 }
  - { offset: 0x3CA60, size: 0x8, addend: 0x0, symName: __ZNK10clip_graph9build_ffnEP11ggml_tensorS1_S1_S1_S1_S1_S1_11ffn_op_typei, symObjAddr: 0x1394, symBinAddr: 0x1C74, symSize: 0x480 }
  - { offset: 0x3D350, size: 0x8, addend: 0x0, symName: __ZN10clip_graph9build_inpEv, symObjAddr: 0x1814, symBinAddr: 0x20F4, symSize: 0xE0 }
  - { offset: 0x3D530, size: 0x8, addend: 0x0, symName: __ZN10clip_graph13build_inp_rawEi, symObjAddr: 0x18F4, symBinAddr: 0x21D4, symSize: 0x50 }
  - { offset: 0x3D5A0, size: 0x8, addend: 0x0, symName: __ZN10clip_graph13build_rope_2dEP12ggml_contextP11ggml_tensorS3_S3_fb, symObjAddr: 0x1944, symBinAddr: 0x2224, symSize: 0x158 }
  - { offset: 0x3D85D, size: 0x8, addend: 0x0, symName: __ZN10clip_graph11build_stackEP11ggml_tensorii, symObjAddr: 0x1A9C, symBinAddr: 0x237C, symSize: 0xE4 }
  - { offset: 0x3DA10, size: 0x8, addend: 0x0, symName: __ZN10clip_graph25build_patch_merge_permuteEP11ggml_tensori, symObjAddr: 0x1B80, symBinAddr: 0x2460, symSize: 0x1A4 }
  - { offset: 0x3DBBF, size: 0x8, addend: 0x0, symName: __Z9clip_initPKc19clip_context_params, symObjAddr: 0x1D24, symBinAddr: 0x2604, symSize: 0x280 }
  - { offset: 0x3DE32, size: 0x8, addend: 0x0, symName: __Z9clip_initPKc19clip_context_params, symObjAddr: 0x1D24, symBinAddr: 0x2604, symSize: 0x280 }
  - { offset: 0x3E31B, size: 0x8, addend: 0x0, symName: __ZN17clip_model_loaderC2EPKc, symObjAddr: 0x16EDC, symBinAddr: 0x177B4, symSize: 0x6A4 }
  - { offset: 0x3FBE5, size: 0x8, addend: 0x0, symName: __ZN8clip_ctxC2ER19clip_context_params, symObjAddr: 0x178B4, symBinAddr: 0x1818C, symSize: 0x69C }
  - { offset: 0x41562, size: 0x8, addend: 0x0, symName: __ZN17clip_model_loader12load_hparamsER10clip_model13clip_modality, symObjAddr: 0x1FA4, symBinAddr: 0x2884, symSize: 0x29A8 }
  - { offset: 0x4D188, size: 0x8, addend: 0x0, symName: __ZN17clip_model_loader12load_tensorsER8clip_ctx, symObjAddr: 0x494C, symBinAddr: 0x522C, symSize: 0xB1D8 }
  - { offset: 0x80D8E, size: 0x8, addend: 0x0, symName: __ZN17clip_model_loader6warmupER8clip_ctx, symObjAddr: 0xFB24, symBinAddr: 0x10404, symSize: 0x200 }
  - { offset: 0x817EE, size: 0x8, addend: 0x0, symName: __ZN17clip_model_loaderD1Ev, symObjAddr: 0xFD24, symBinAddr: 0x10604, symSize: 0x68 }
  - { offset: 0x81A33, size: 0x8, addend: 0x0, symName: __ZL17clip_log_internal14ggml_log_levelPKcz, symObjAddr: 0xFD8C, symBinAddr: 0x1066C, symSize: 0xFC }
  - { offset: 0x81B93, size: 0x8, addend: 0x0, symName: __ZN8clip_ctxD2Ev, symObjAddr: 0x1AC8C, symBinAddr: 0x1B564, symSize: 0xC0 }
  - { offset: 0x82CD6, size: 0x8, addend: 0x0, symName: __ZNK17clip_model_loader10get_stringERKNSt3__112basic_stringIcNS0_11char_traitsIcEENS0_9allocatorIcEEEERS6_b, symObjAddr: 0x17704, symBinAddr: 0x17FDC, symSize: 0x1B0 }
  - { offset: 0x8329F, size: 0x8, addend: 0x0, symName: __ZL13string_formatPKcz, symObjAddr: 0x175B4, symBinAddr: 0x17E8C, symSize: 0x150 }
  - { offset: 0x83861, size: 0x8, addend: 0x0, symName: __ZNK17clip_model_loader7get_u32ERKNSt3__112basic_stringIcNS0_11char_traitsIcEENS0_9allocatorIcEEEERib, symObjAddr: 0x1815C, symBinAddr: 0x18A34, symSize: 0x108 }
  - { offset: 0x83A87, size: 0x8, addend: 0x0, symName: __ZNK17clip_model_loader7get_f32ERKNSt3__112basic_stringIcNS0_11char_traitsIcEENS0_9allocatorIcEEEERfb, symObjAddr: 0x18264, symBinAddr: 0x18B3C, symSize: 0x108 }
  - { offset: 0x83D1D, size: 0x8, addend: 0x0, symName: __ZNK17clip_model_loader11get_arr_intERKNSt3__112basic_stringIcNS0_11char_traitsIcEENS0_9allocatorIcEEEERNS0_6vectorIiNS4_IiEEEEb, symObjAddr: 0x1836C, symBinAddr: 0x18C44, symSize: 0x1F8 }
  - { offset: 0x840AC, size: 0x8, addend: 0x0, symName: __ZNSt3__112__hash_tableIiNS_4hashIiEENS_8equal_toIiEENS_9allocatorIiEEE25__emplace_unique_key_argsIiJRKiEEENS_4pairINS_15__hash_iteratorIPNS_11__hash_nodeIiPvEEEEbEERKT_DpOT0_, symObjAddr: 0x18A90, symBinAddr: 0x19368, symSize: 0x30C }
  - { offset: 0x84706, size: 0x8, addend: 0x0, symName: __ZN17clip_model_loader31set_internvl_dhr_res_candidatesER10clip_model, symObjAddr: 0x18564, symBinAddr: 0x18E3C, symSize: 0x188 }
  - { offset: 0x84B6C, size: 0x8, addend: 0x0, symName: __ZN12clip_hparams22set_limit_image_tokensEii, symObjAddr: 0x186EC, symBinAddr: 0x18FC4, symSize: 0x50 }
  - { offset: 0x84B77, size: 0x8, addend: 0x0, symName: __ZN17clip_model_loader28set_llava_uhd_res_candidatesER10clip_modeli, symObjAddr: 0x1873C, symBinAddr: 0x19014, symSize: 0x214 }
  - { offset: 0x84F4A, size: 0x8, addend: 0x0, symName: __ZNSt3__16vectorIiNS_9allocatorIiEEE8__appendEm, symObjAddr: 0x18950, symBinAddr: 0x19228, symSize: 0x118 }
  - { offset: 0x84F55, size: 0x8, addend: 0x0, symName: __ZN12clip_hparams22set_limit_image_tokensEii, symObjAddr: 0x186EC, symBinAddr: 0x18FC4, symSize: 0x50 }
  - { offset: 0x84FD1, size: 0x8, addend: 0x0, symName: __ZNSt3__16vectorI15clip_image_sizeNS_9allocatorIS1_EEE20__throw_length_errorB9nqe210106Ev, symObjAddr: 0x18A7C, symBinAddr: 0x19354, symSize: 0x14 }
  - { offset: 0x84FE9, size: 0x8, addend: 0x0, symName: __ZNSt3__112__hash_tableIiNS_4hashIiEENS_8equal_toIiEENS_9allocatorIiEEE25__emplace_unique_key_argsIiJRKiEEENS_4pairINS_15__hash_iteratorIPNS_11__hash_nodeIiPvEEEEbEERKT_DpOT0_, symObjAddr: 0x18A90, symBinAddr: 0x19368, symSize: 0x30C }
  - { offset: 0x87088, size: 0x8, addend: 0x0, symName: __ZNSt3__114basic_ifstreamIcNS_11char_traitsIcEEEC1ERKNS_12basic_stringIcS2_NS_9allocatorIcEEEEj, symObjAddr: 0x18F28, symBinAddr: 0x19800, symSize: 0x124 }
  - { offset: 0x872B3, size: 0x8, addend: 0x0, symName: __ZNSt3__16__treeINS_12__value_typeINS_12basic_stringIcNS_11char_traitsIcEENS_9allocatorIcEEEEmEENS_19__map_value_compareIS7_NS_4pairIKS7_mEENS_4lessIS7_EELb1EEENS5_ISC_EEE25__emplace_unique_key_argsIS7_JRKNS_21piecewise_construct_tENS_5tupleIJOS7_EEENSM_IJEEEEEENSA_INS_15__tree_iteratorIS8_PNS_11__tree_nodeIS8_PvEElEEbEERKT_DpOT0_, symObjAddr: 0x196C4, symBinAddr: 0x19F9C, symSize: 0x174 }
  - { offset: 0x878AC, size: 0x8, addend: 0x0, symName: __ZZN17clip_model_loader12load_tensorsER8clip_ctxENKUlRKNSt3__112basic_stringIcNS2_11char_traitsIcEENS2_9allocatorIcEEEEbE_clESA_b, symObjAddr: 0x1904C, symBinAddr: 0x19924, symSize: 0x278 }
  - { offset: 0x88108, size: 0x8, addend: 0x0, symName: __ZNSt3__16vectorI10clip_layerNS_9allocatorIS1_EEE8__appendEm, symObjAddr: 0x1A614, symBinAddr: 0x1AEEC, symSize: 0x1B4 }
  - { offset: 0x88521, size: 0x8, addend: 0x0, symName: __ZNSt3__16vectorI10clip_layerNS_9allocatorIS1_EEE20__throw_length_errorB9nqe210106Ev, symObjAddr: 0x1A7C8, symBinAddr: 0x1B0A0, symSize: 0x14 }
  - { offset: 0x8852C, size: 0x8, addend: 0x0, symName: __ZNSt3__16vectorI11yasa2_stageNS_9allocatorIS1_EEE24__emplace_back_slow_pathIJS1_EEEPS1_DpOT_, symObjAddr: 0x1A7F0, symBinAddr: 0x1B0C8, symSize: 0x178 }
  - { offset: 0x88B9F, size: 0x8, addend: 0x0, symName: __ZNSt3__16vectorI11yasa2_stageNS_9allocatorIS1_EEE20__throw_length_errorB9nqe210106Ev, symObjAddr: 0x1A968, symBinAddr: 0x1B240, symSize: 0x14 }
  - { offset: 0x88BB5, size: 0x8, addend: 0x0, symName: __ZNSt3__112basic_stringIcNS_11char_traitsIcEENS_9allocatorIcEEE25__init_copy_ctor_externalEPKcm, symObjAddr: 0x1A97C, symBinAddr: 0x1B254, symSize: 0x8C }
  - { offset: 0x88D6A, size: 0x8, addend: 0x0, symName: __ZNSt3__16__treeINS_12__value_typeINS_12basic_stringIcNS_11char_traitsIcEENS_9allocatorIcEEEEN10clip_model10clamp_infoEEENS_19__map_value_compareIS7_NS_4pairIKS7_S9_EENS_4lessIS7_EELb1EEENS5_ISE_EEE25__emplace_unique_key_argsIS7_JRKNS_21piecewise_construct_tENS_5tupleIJRSD_EEENSO_IJEEEEEENSC_INS_15__tree_iteratorISA_PNS_11__tree_nodeISA_PvEElEEbEERKT_DpOT0_, symObjAddr: 0x1AA08, symBinAddr: 0x1B2E0, symSize: 0x1B0 }
  - { offset: 0x88D75, size: 0x8, addend: 0x0, symName: __ZL18string_replace_allRNSt3__112basic_stringIcNS_11char_traitsIcEENS_9allocatorIcEEEERKS5_S8_, symObjAddr: 0x192C4, symBinAddr: 0x19B9C, symSize: 0x1F4 }
  - { offset: 0x89372, size: 0x8, addend: 0x0, symName: __ZZN17clip_model_loader12load_tensorsER8clip_ctxENKUlRKNSt3__112basic_stringIcNS2_11char_traitsIcEENS2_9allocatorIcEEEEfE_clESA_f, symObjAddr: 0x194B8, symBinAddr: 0x19D90, symSize: 0x14C }
  - { offset: 0x89714, size: 0x8, addend: 0x0, symName: __ZNSt3__16__treeINS_12__value_typeINS_12basic_stringIcNS_11char_traitsIcEENS_9allocatorIcEEEEN10clip_model10clamp_infoEEENS_19__map_value_compareIS7_NS_4pairIKS7_S9_EENS_4lessIS7_EELb1EEENS5_ISE_EEE25__emplace_unique_key_argsIS7_JRKNS_21piecewise_construct_tENS_5tupleIJRSD_EEENSO_IJEEEEEENSC_INS_15__tree_iteratorISA_PNS_11__tree_nodeISA_PvEElEEbEERKT_DpOT0_, symObjAddr: 0x1AA08, symBinAddr: 0x1B2E0, symSize: 0x1B0 }
  - { offset: 0x89E0C, size: 0x8, addend: 0x0, symName: __ZNSt3__16__treeINS_12__value_typeINS_12basic_stringIcNS_11char_traitsIcEENS_9allocatorIcEEEEmEENS_19__map_value_compareIS7_NS_4pairIKS7_mEENS_4lessIS7_EELb1EEENS5_ISC_EEE7destroyEPNS_11__tree_nodeIS8_PvEE, symObjAddr: 0x1AC2C, symBinAddr: 0x1B504, symSize: 0x60 }
  - { offset: 0x8A03B, size: 0x8, addend: 0x0, symName: __ZNSt3__112basic_stringIcNS_11char_traitsIcEENS_9allocatorIcEEE20__throw_length_errorB9nqe210106Ev, symObjAddr: 0x16E2C, symBinAddr: 0x17704, symSize: 0x14 }
  - { offset: 0x8A053, size: 0x8, addend: 0x0, symName: __ZNSt3__120__throw_length_errorB9nqe210106EPKc, symObjAddr: 0x16E40, symBinAddr: 0x17718, symSize: 0x50 }
  - { offset: 0x8A05E, size: 0x8, addend: 0x0, symName: __ZNSt3__16vectorI17mobilenetv5_blockNS_9allocatorIS1_EEE20__throw_length_errorB9nqe210106Ev, symObjAddr: 0x1AC18, symBinAddr: 0x1B4F0, symSize: 0x14 }
  - { offset: 0x8A076, size: 0x8, addend: 0x0, symName: __ZNSt3__16__treeINS_12__value_typeINS_12basic_stringIcNS_11char_traitsIcEENS_9allocatorIcEEEEmEENS_19__map_value_compareIS7_NS_4pairIKS7_mEENS_4lessIS7_EELb1EEENS5_ISC_EEE7destroyEPNS_11__tree_nodeIS8_PvEE, symObjAddr: 0x1AC2C, symBinAddr: 0x1B504, symSize: 0x60 }
  - { offset: 0x8A081, size: 0x8, addend: 0x0, symName: __ZNSt3__16vectorI11yasa2_blockNS_9allocatorIS1_EEE20__throw_length_errorB9nqe210106Ev, symObjAddr: 0x1A7DC, symBinAddr: 0x1B0B4, symSize: 0x14 }
  - { offset: 0x8A099, size: 0x8, addend: 0x0, symName: __ZNSt3__16vectorI11yasa2_stageNS_9allocatorIS1_EEE24__emplace_back_slow_pathIJS1_EEEPS1_DpOT_, symObjAddr: 0x1A7F0, symBinAddr: 0x1B0C8, symSize: 0x178 }
  - { offset: 0x8A0A4, size: 0x8, addend: 0x0, symName: __ZNSt3__16vectorIhNS_9allocatorIhEEE20__throw_length_errorB9nqe210106Ev, symObjAddr: 0x1B5FC, symBinAddr: 0x1BED4, symSize: 0x14 }
  - { offset: 0x8A0BC, size: 0x8, addend: 0x0, symName: __ZNSt3__16vectorINS_10unique_ptrI14clip_image_f3222clip_image_f32_deleterEENS_9allocatorIS4_EEE20__throw_length_errorB9nqe210106Ev, symObjAddr: 0x1B610, symBinAddr: 0x1BEE8, symSize: 0x14 }
  - { offset: 0x8A0C7, size: 0x8, addend: 0x0, symName: __ZNSt3__16vectorIiNS_9allocatorIiEEE20__throw_length_errorB9nqe210106Ev, symObjAddr: 0x18A68, symBinAddr: 0x19340, symSize: 0x14 }
  - { offset: 0x8A0DF, size: 0x8, addend: 0x0, symName: __ZNSt3__16vectorI15clip_image_sizeNS_9allocatorIS1_EEE20__throw_length_errorB9nqe210106Ev, symObjAddr: 0x18A7C, symBinAddr: 0x19354, symSize: 0x14 }
  - { offset: 0x8A0EA, size: 0x8, addend: 0x0, symName: __ZNSt3__114basic_ifstreamIcNS_11char_traitsIcEEED1Ev, symObjAddr: 0x1966C, symBinAddr: 0x19F44, symSize: 0x58 }
  - { offset: 0x8A135, size: 0x8, addend: 0x0, symName: __ZNSt3__113unordered_setINS_12basic_stringIcNS_11char_traitsIcEENS_9allocatorIcEEEENS_4hashIS6_EENS_8equal_toIS6_EENS4_IS6_EEED1B9nqe210106Ev, symObjAddr: 0x19604, symBinAddr: 0x19EDC, symSize: 0x68 }
  - { offset: 0x8AD09, size: 0x8, addend: 0x0, symName: __ZNSt3__16vectorINS_10unique_ptrI14clip_image_f3222clip_image_f32_deleterEENS_9allocatorIS4_EEE20__throw_length_errorB9nqe210106Ev, symObjAddr: 0x1B610, symBinAddr: 0x1BEE8, symSize: 0x14 }
  - { offset: 0x8AD21, size: 0x8, addend: 0x0, symName: __ZNSt3__16vectorIdNS_9allocatorIdEEE20__throw_length_errorB9nqe210106Ev, symObjAddr: 0x1B624, symBinAddr: 0x1BEFC, symSize: 0x14 }
  - { offset: 0x8AD2C, size: 0x8, addend: 0x0, symName: __ZN20clip_image_f32_batchD1Ev, symObjAddr: 0x100D0, symBinAddr: 0x109B0, symSize: 0x80 }
  - { offset: 0x8B0BE, size: 0x8, addend: 0x0, symName: __ZNSt3__110unique_ptrI14clip_image_f3222clip_image_f32_deleterED1B9nqe210106Ev, symObjAddr: 0x158D0, symBinAddr: 0x161B0, symSize: 0x44 }
  - { offset: 0x8B39A, size: 0x8, addend: 0x0, symName: __Z20clip_image_size_initv, symObjAddr: 0xFE98, symBinAddr: 0x10778, symSize: 0x20 }
  - { offset: 0x8B43F, size: 0x8, addend: 0x0, symName: __Z18clip_image_u8_initv, symObjAddr: 0xFEB8, symBinAddr: 0x10798, symSize: 0x20 }
  - { offset: 0x8B4D9, size: 0x8, addend: 0x0, symName: __Z19clip_image_f32_initv, symObjAddr: 0xFED8, symBinAddr: 0x107B8, symSize: 0x20 }
  - { offset: 0x8B568, size: 0x8, addend: 0x0, symName: __Z25clip_image_f32_batch_initv, symObjAddr: 0xFEF8, symBinAddr: 0x107D8, symSize: 0x24 }
  - { offset: 0x8B5DA, size: 0x8, addend: 0x0, symName: __Z22clip_image_u8_get_dataP13clip_image_u8PjS1_, symObjAddr: 0xFF1C, symBinAddr: 0x107FC, symSize: 0x20 }
  - { offset: 0x8B649, size: 0x8, addend: 0x0, symName: __Z20clip_image_size_freeP15clip_image_size, symObjAddr: 0xFF3C, symBinAddr: 0x1081C, symSize: 0xC }
  - { offset: 0x8B706, size: 0x8, addend: 0x0, symName: __Z18clip_image_u8_freeP13clip_image_u8, symObjAddr: 0xFF48, symBinAddr: 0x10828, symSize: 0x3C }
  - { offset: 0x8B87F, size: 0x8, addend: 0x0, symName: __Z19clip_image_f32_freeP14clip_image_f32, symObjAddr: 0xFF84, symBinAddr: 0x10864, symSize: 0x3C }
  - { offset: 0x8BC97, size: 0x8, addend: 0x0, symName: __Z24clip_image_u8_batch_freeP19clip_image_u8_batch, symObjAddr: 0xFFC0, symBinAddr: 0x108A0, symSize: 0x88 }
  - { offset: 0x8C035, size: 0x8, addend: 0x0, symName: __Z25clip_image_f32_batch_freeP20clip_image_f32_batch, symObjAddr: 0x10048, symBinAddr: 0x10928, symSize: 0x88 }
  - { offset: 0x8C3D3, size: 0x8, addend: 0x0, symName: __Z29clip_image_f32_batch_n_imagesPK20clip_image_f32_batch, symObjAddr: 0x10150, symBinAddr: 0x10A30, symSize: 0x10 }
  - { offset: 0x8C407, size: 0x8, addend: 0x0, symName: __Z29clip_image_f32_batch_n_imagesPK20clip_image_f32_batch, symObjAddr: 0x10150, symBinAddr: 0x10A30, symSize: 0x10 }
  - { offset: 0x8C438, size: 0x8, addend: 0x0, symName: __Z23clip_image_f32_batch_nxPK20clip_image_f32_batchi, symObjAddr: 0x10160, symBinAddr: 0x10A40, symSize: 0x5C }
  - { offset: 0x8C4C3, size: 0x8, addend: 0x0, symName: __Z23clip_image_f32_batch_nyPK20clip_image_f32_batchi, symObjAddr: 0x101BC, symBinAddr: 0x10A9C, symSize: 0x5C }
  - { offset: 0x8C564, size: 0x8, addend: 0x0, symName: __Z22clip_image_f32_get_imgPK20clip_image_f32_batchi, symObjAddr: 0x10218, symBinAddr: 0x10AF8, symSize: 0x58 }
  - { offset: 0x8C65F, size: 0x8, addend: 0x0, symName: __Z26clip_build_img_from_pixelsPKhiiP13clip_image_u8, symObjAddr: 0x10270, symBinAddr: 0x10B50, symSize: 0x118 }
  - { offset: 0x8CBA0, size: 0x8, addend: 0x0, symName: __Z23clip_get_newline_tensorPK8clip_ctx, symObjAddr: 0x10388, symBinAddr: 0x10C68, symSize: 0x8 }
  - { offset: 0x8CBAB, size: 0x8, addend: 0x0, symName: __Z23clip_get_newline_tensorPK8clip_ctx, symObjAddr: 0x10388, symBinAddr: 0x10C68, symSize: 0x8 }
  - { offset: 0x8CBDC, size: 0x8, addend: 0x0, symName: __Z9clip_freeP8clip_ctx, symObjAddr: 0x10390, symBinAddr: 0x10C70, symSize: 0x1C }
  - { offset: 0x8CC75, size: 0x8, addend: 0x0, symName: __Z16clip_embd_nbytesPK8clip_ctx, symObjAddr: 0x103AC, symBinAddr: 0x10C8C, symSize: 0x50 }
  - { offset: 0x8CDB1, size: 0x8, addend: 0x0, symName: __Z20clip_n_output_tokensPK8clip_ctxP14clip_image_f32, symObjAddr: 0x10448, symBinAddr: 0x10D28, symSize: 0x37C }
  - { offset: 0x8D0E9, size: 0x8, addend: 0x0, symName: __Z19clip_get_image_sizePK8clip_ctx, symObjAddr: 0x107C4, symBinAddr: 0x110A4, symSize: 0x8 }
  - { offset: 0x8D0FD, size: 0x8, addend: 0x0, symName: __Z23clip_embd_nbytes_by_imgPK8clip_ctxii, symObjAddr: 0x103FC, symBinAddr: 0x10CDC, symSize: 0x4C }
  - { offset: 0x8D1FD, size: 0x8, addend: 0x0, symName: __Z19clip_get_image_sizePK8clip_ctx, symObjAddr: 0x107C4, symBinAddr: 0x110A4, symSize: 0x8 }
  - { offset: 0x8D22E, size: 0x8, addend: 0x0, symName: __Z19clip_get_patch_sizePK8clip_ctx, symObjAddr: 0x107CC, symBinAddr: 0x110AC, symSize: 0x8 }
  - { offset: 0x8D25F, size: 0x8, addend: 0x0, symName: __Z20clip_get_hidden_sizePK8clip_ctx, symObjAddr: 0x107D4, symBinAddr: 0x110B4, symSize: 0x8 }
  - { offset: 0x8D290, size: 0x8, addend: 0x0, symName: __Z21clip_patch_merge_typePK8clip_ctx, symObjAddr: 0x107DC, symBinAddr: 0x110BC, symSize: 0x20 }
  - { offset: 0x8D2C1, size: 0x8, addend: 0x0, symName: __Z22clip_n_output_tokens_xPK8clip_ctxP14clip_image_f32, symObjAddr: 0x107FC, symBinAddr: 0x110DC, symSize: 0x88 }
  - { offset: 0x8D36E, size: 0x8, addend: 0x0, symName: __Z22clip_n_output_tokens_yPK8clip_ctxP14clip_image_f32, symObjAddr: 0x10884, symBinAddr: 0x11164, symSize: 0x68 }
  - { offset: 0x8D468, size: 0x8, addend: 0x0, symName: __Z17clip_image_encodeP8clip_ctxiP14clip_image_f32Pf, symObjAddr: 0x108EC, symBinAddr: 0x111CC, symSize: 0x1F4 }
  - { offset: 0x8DF25, size: 0x8, addend: 0x0, symName: __ZNSt3__16vectorIfNS_9allocatorIfEEE18__assign_with_sizeB9nqe210106IPfS5_EEvT_T0_l, symObjAddr: 0x1AD4C, symBinAddr: 0x1B624, symSize: 0x148 }
  - { offset: 0x8E937, size: 0x8, addend: 0x0, symName: __ZNSt3__16vectorIfNS_9allocatorIfEEE20__throw_length_errorB9nqe210106Ev, symObjAddr: 0x1AE94, symBinAddr: 0x1B76C, symSize: 0x14 }
  - { offset: 0x8E954, size: 0x8, addend: 0x0, symName: __Z23clip_image_batch_encodeP8clip_ctxiPK20clip_image_f32_batchPf, symObjAddr: 0x10AE0, symBinAddr: 0x113C0, symSize: 0x4DF0 }
  - { offset: 0x93214, size: 0x8, addend: 0x0, symName: __ZL22clip_image_build_graphP8clip_ctxRK20clip_image_f32_batch, symObjAddr: 0x15E50, symBinAddr: 0x16730, symSize: 0x690 }
  - { offset: 0x942DC, size: 0x8, addend: 0x0, symName: '__ZZ23clip_image_batch_encodeP8clip_ctxiPK20clip_image_f32_batchPfENK3$_1clEPKcRNSt3__16vectorIfNS8_9allocatorIfEEEE', symObjAddr: 0x1656C, symBinAddr: 0x16E4C, symSize: 0xFC }
  - { offset: 0x94422, size: 0x8, addend: 0x0, symName: __ZNSt3__16vectorIiNS_9allocatorIiEEEC1B9nqe210106Em, symObjAddr: 0x16668, symBinAddr: 0x16F48, symSize: 0x8C }
  - { offset: 0x94441, size: 0x8, addend: 0x0, symName: '__ZZ23clip_image_batch_encodeP8clip_ctxiPK20clip_image_f32_batchPfENK3$_2clEPKcRNSt3__16vectorIiNS8_9allocatorIiEEEE', symObjAddr: 0x166F4, symBinAddr: 0x16FD4, symSize: 0x100 }
  - { offset: 0x94587, size: 0x8, addend: 0x0, symName: __ZNSt3__16vectorIfNS_9allocatorIfEEEC1B9nqe210106EmRKf, symObjAddr: 0x167F4, symBinAddr: 0x170D4, symSize: 0x120 }
  - { offset: 0x9459B, size: 0x8, addend: 0x0, symName: __ZNSt3__16vectorIiNS_9allocatorIiEEEC1B9nqe210106Em, symObjAddr: 0x16668, symBinAddr: 0x16F48, symSize: 0x8C }
  - { offset: 0x94870, size: 0x8, addend: 0x0, symName: __ZNSt3__16vectorIfNS_9allocatorIfEEEC1B9nqe210106Em, symObjAddr: 0x164E0, symBinAddr: 0x16DC0, symSize: 0x8C }
  - { offset: 0x94B45, size: 0x8, addend: 0x0, symName: __ZNSt3__16vectorIdNS_9allocatorIdEEEC1B9nqe210106Em, symObjAddr: 0x16A30, symBinAddr: 0x17310, symSize: 0x8C }
  - { offset: 0x94E27, size: 0x8, addend: 0x0, symName: __ZNSt3__16vectorIfNS_9allocatorIfEEEC1B9nqe210106EmRKf, symObjAddr: 0x167F4, symBinAddr: 0x170D4, symSize: 0x120 }
  - { offset: 0x95161, size: 0x8, addend: 0x0, symName: __ZNSt3__16vectorIiNS_9allocatorIiEEEC1B9nqe210106EmRKi, symObjAddr: 0x16914, symBinAddr: 0x171F4, symSize: 0x11C }
  - { offset: 0x95515, size: 0x8, addend: 0x0, symName: __ZNSt3__16vectorIfNS_9allocatorIfEEE20__throw_length_errorB9nqe210106Ev, symObjAddr: 0x1AE94, symBinAddr: 0x1B76C, symSize: 0x14 }
  - { offset: 0x9552D, size: 0x8, addend: 0x0, symName: __ZN17clip_model_loader18alloc_compute_metaER8clip_ctxRK20clip_image_f32_batch, symObjAddr: 0x1AEA8, symBinAddr: 0x1B780, symSize: 0x39C }
  - { offset: 0x95A7E, size: 0x8, addend: 0x0, symName: __ZN17clip_model_loader18alloc_compute_metaER8clip_ctxRK20clip_image_f32_batch, symObjAddr: 0x1AEA8, symBinAddr: 0x1B780, symSize: 0x39C }
  - { offset: 0x967BA, size: 0x8, addend: 0x0, symName: __ZNSt3__16vectorIN17clip_model_loader15support_info_opENS_9allocatorIS2_EEE20__throw_length_errorB9nqe210106Ev, symObjAddr: 0x1B244, symBinAddr: 0x1BB1C, symSize: 0x14 }
  - { offset: 0x967D2, size: 0x8, addend: 0x0, symName: __ZNSt3__16__treeINS_12__value_typeI14projector_typeNS_12basic_stringIcNS_11char_traitsIcEENS_9allocatorIcEEEEEENS_19__map_value_compareIS2_NS_4pairIKS2_S8_EENS_4lessIS2_EELb1EEENS6_ISD_EEE30__emplace_hint_unique_key_argsIS2_JRKSD_EEENSB_INS_15__tree_iteratorIS9_PNS_11__tree_nodeIS9_PvEElEEbEENS_21__tree_const_iteratorIS9_SQ_lEERKT_DpOT0_, symObjAddr: 0x1B258, symBinAddr: 0x1BB30, symSize: 0xF8 }
  - { offset: 0x978CB, size: 0x8, addend: 0x0, symName: __ZNSt3__16vectorIdNS_9allocatorIdEEE20__throw_length_errorB9nqe210106Ev, symObjAddr: 0x1B624, symBinAddr: 0x1BEFC, symSize: 0x14 }
  - { offset: 0x978E3, size: 0x8, addend: 0x0, symName: __ZNSt3__16vectorIfNS_9allocatorIfEEE8__appendEm, symObjAddr: 0x1B638, symBinAddr: 0x1BF10, symSize: 0x118 }
  - { offset: 0x978EE, size: 0x8, addend: 0x0, symName: __Z16clip_is_minicpmvPK8clip_ctx, symObjAddr: 0x16ABC, symBinAddr: 0x1739C, symSize: 0x1C }
  - { offset: 0x97922, size: 0x8, addend: 0x0, symName: __Z16clip_is_minicpmvPK8clip_ctx, symObjAddr: 0x16ABC, symBinAddr: 0x1739C, symSize: 0x1C }
  - { offset: 0x9793D, size: 0x8, addend: 0x0, symName: __Z11clip_is_glmPK8clip_ctx, symObjAddr: 0x16AD8, symBinAddr: 0x173B8, symSize: 0x10 }
  - { offset: 0x97971, size: 0x8, addend: 0x0, symName: __Z11clip_is_glmPK8clip_ctx, symObjAddr: 0x16AD8, symBinAddr: 0x173B8, symSize: 0x10 }
  - { offset: 0x9798C, size: 0x8, addend: 0x0, symName: __Z13clip_is_llavaPK8clip_ctx, symObjAddr: 0x16AE8, symBinAddr: 0x173C8, symSize: 0x8 }
  - { offset: 0x979BD, size: 0x8, addend: 0x0, symName: __Z23clip_has_vision_encoderPK8clip_ctx, symObjAddr: 0x16AF0, symBinAddr: 0x173D0, symSize: 0x10 }
  - { offset: 0x979EE, size: 0x8, addend: 0x0, symName: __Z22clip_has_audio_encoderPK8clip_ctx, symObjAddr: 0x16B00, symBinAddr: 0x173E0, symSize: 0x10 }
  - { offset: 0x97A1F, size: 0x8, addend: 0x0, symName: __Z24clip_has_whisper_encoderPK8clip_ctx, symObjAddr: 0x16B10, symBinAddr: 0x173F0, symSize: 0x1C }
  - { offset: 0x97BF7, size: 0x8, addend: 0x0, symName: __Z23clip_encode_float_imageP8clip_ctxiPfiiS1_, symObjAddr: 0x16B2C, symBinAddr: 0x1740C, symSize: 0x188 }
  - { offset: 0x98171, size: 0x8, addend: 0x0, symName: __Z23clip_get_projector_typePK8clip_ctx, symObjAddr: 0x16CB4, symBinAddr: 0x17594, symSize: 0x8 }
  - { offset: 0x981A5, size: 0x8, addend: 0x0, symName: __Z23clip_get_projector_typePK8clip_ctx, symObjAddr: 0x16CB4, symBinAddr: 0x17594, symSize: 0x8 }
  - { offset: 0x981C0, size: 0x8, addend: 0x0, symName: __Z28clip_image_f32_batch_add_melP20clip_image_f32_batchiiPf, symObjAddr: 0x16CBC, symBinAddr: 0x1759C, symSize: 0x158 }
  - { offset: 0x987E9, size: 0x8, addend: 0x0, symName: __ZNSt3__16vectorIfNS_9allocatorIfEEE8__appendEm, symObjAddr: 0x1B638, symBinAddr: 0x1BF10, symSize: 0x118 }
  - { offset: 0x98C5B, size: 0x8, addend: 0x0, symName: __Z16clip_get_hparamsPK8clip_ctx, symObjAddr: 0x16E14, symBinAddr: 0x176F4, symSize: 0x8 }
  - { offset: 0x98C8C, size: 0x8, addend: 0x0, symName: __Z32clip_set_debug_output_embeddingsP8clip_ctxb, symObjAddr: 0x16E1C, symBinAddr: 0x176FC, symSize: 0x8 }
  - { offset: 0x98CC3, size: 0x8, addend: 0x0, symName: __ZN10clip_graphD1Ev, symObjAddr: 0x16E24, symBinAddr: 0x9DF50, symSize: 0x4 }
  - { offset: 0x98CF0, size: 0x8, addend: 0x0, symName: __ZN10clip_graphD0Ev, symObjAddr: 0x16E28, symBinAddr: 0x9DF54, symSize: 0x4 }
  - { offset: 0x98D19, size: 0x8, addend: 0x0, symName: __ZNSt12length_errorC1B9nqe210106EPKc, symObjAddr: 0x16E90, symBinAddr: 0x17768, symSize: 0x24 }
  - { offset: 0x98EAC, size: 0x8, addend: 0x0, symName: __ZNSt3__110unique_ptrI12gguf_context20gguf_context_deleterED1B9nqe210106Ev, symObjAddr: 0x17580, symBinAddr: 0x17E58, symSize: 0x34 }
  - { offset: 0x99D7E, size: 0x8, addend: 0x0, symName: __ZNSt3__16vectorIP12ggml_backendNS_9allocatorIS2_EEE20__throw_length_errorB9nqe210106Ev, symObjAddr: 0x17FB8, symBinAddr: 0x18890, symSize: 0x14 }
  - { offset: 0x99D96, size: 0x8, addend: 0x0, symName: __ZNSt3__16vectorIP24ggml_backend_buffer_typeNS_9allocatorIS2_EEE20__throw_length_errorB9nqe210106Ev, symObjAddr: 0x17FCC, symBinAddr: 0x188A4, symSize: 0x14 }
  - { offset: 0x99DA1, size: 0x8, addend: 0x0, symName: __ZNSt3__16vectorIP24ggml_backend_buffer_typeNS_9allocatorIS2_EEE20__throw_length_errorB9nqe210106Ev, symObjAddr: 0x17FCC, symBinAddr: 0x188A4, symSize: 0x14 }
  - { offset: 0x99DB9, size: 0x8, addend: 0x0, symName: __ZN10clip_modelD2Ev, symObjAddr: 0x17FE0, symBinAddr: 0x188B8, symSize: 0x11C }
  - { offset: 0x99DC4, size: 0x8, addend: 0x0, symName: __ZNSt3__110unique_ptrI18ggml_backend_sched26ggml_backend_sched_deleterED1B9nqe210106Ev, symObjAddr: 0x17F50, symBinAddr: 0x18828, symSize: 0x34 }
  - { offset: 0x99E60, size: 0x8, addend: 0x0, symName: __ZNSt3__110unique_ptrI19ggml_backend_buffer27ggml_backend_buffer_deleterED1B9nqe210106Ev, symObjAddr: 0x17F84, symBinAddr: 0x1885C, symSize: 0x34 }
  - { offset: 0x99EFC, size: 0x8, addend: 0x0, symName: __ZN10clip_modelD2Ev, symObjAddr: 0x17FE0, symBinAddr: 0x188B8, symSize: 0x11C }
  - { offset: 0x9B313, size: 0x8, addend: 0x0, symName: __ZNSt3__16__treeINS_12__value_typeINS_12basic_stringIcNS_11char_traitsIcEENS_9allocatorIcEEEEN10clip_model10clamp_infoEEENS_19__map_value_compareIS7_NS_4pairIKS7_S9_EENS_4lessIS7_EELb1EEENS5_ISE_EEE7destroyEPNS_11__tree_nodeISA_PvEE, symObjAddr: 0x180FC, symBinAddr: 0x189D4, symSize: 0x60 }
  - { offset: 0x9B6A0, size: 0x8, addend: 0x0, symName: __ZNSt3__16vectorIiNS_9allocatorIiEEE8__appendEm, symObjAddr: 0x18950, symBinAddr: 0x19228, symSize: 0x118 }
  - { offset: 0x9BB17, size: 0x8, addend: 0x0, symName: __ZNSt3__16vectorIiNS_9allocatorIiEEE20__throw_length_errorB9nqe210106Ev, symObjAddr: 0x18A68, symBinAddr: 0x19340, symSize: 0x14 }
  - { offset: 0x9BF08, size: 0x8, addend: 0x0, symName: __ZNSt3__112__hash_tableIiNS_4hashIiEENS_8equal_toIiEENS_9allocatorIiEEE11__do_rehashILb1EEEvm, symObjAddr: 0x18D9C, symBinAddr: 0x19674, symSize: 0x18C }
  - { offset: 0x9C268, size: 0x8, addend: 0x0, symName: __ZNSt3__114basic_ifstreamIcNS_11char_traitsIcEEEC1ERKNS_12basic_stringIcS2_NS_9allocatorIcEEEEj, symObjAddr: 0x18F28, symBinAddr: 0x19800, symSize: 0x124 }
  - { offset: 0x9C78A, size: 0x8, addend: 0x0, symName: __ZNKSt3__112__hash_tableINS_12basic_stringIcNS_11char_traitsIcEENS_9allocatorIcEEEENS_4hashIS6_EENS_8equal_toIS6_EENS4_IS6_EEE4findIS6_EENS_21__hash_const_iteratorIPNS_11__hash_nodeIS6_PvEEEERKT_, symObjAddr: 0x19A0C, symBinAddr: 0x1A2E4, symSize: 0x1BC }
  - { offset: 0x9CAEA, size: 0x8, addend: 0x0, symName: __ZNSt3__112__hash_tableINS_12basic_stringIcNS_11char_traitsIcEENS_9allocatorIcEEEENS_4hashIS6_EENS_8equal_toIS6_EENS4_IS6_EEE25__emplace_unique_key_argsIS6_JRKS6_EEENS_4pairINS_15__hash_iteratorIPNS_11__hash_nodeIS6_PvEEEEbEERKT_DpOT0_, symObjAddr: 0x1A028, symBinAddr: 0x1A900, symSize: 0x400 }
  - { offset: 0x9D358, size: 0x8, addend: 0x0, symName: __ZNSt3__16vectorIP11ggml_tensorNS_9allocatorIS2_EEE20__throw_length_errorB9nqe210106Ev, symObjAddr: 0x1A014, symBinAddr: 0x1A8EC, symSize: 0x14 }
  - { offset: 0x9D370, size: 0x8, addend: 0x0, symName: __ZNSt3__112__hash_tableINS_12basic_stringIcNS_11char_traitsIcEENS_9allocatorIcEEEENS_4hashIS6_EENS_8equal_toIS6_EENS4_IS6_EEE25__emplace_unique_key_argsIS6_JRKS6_EEENS_4pairINS_15__hash_iteratorIPNS_11__hash_nodeIS6_PvEEEEbEERKT_DpOT0_, symObjAddr: 0x1A028, symBinAddr: 0x1A900, symSize: 0x400 }
  - { offset: 0x9D8C3, size: 0x8, addend: 0x0, symName: __ZNKSt3__121__murmur2_or_cityhashImLm64EEclB9nqe210106EPKvm, symObjAddr: 0x19BC8, symBinAddr: 0x1A4A0, symSize: 0x44C }
  - { offset: 0x9E851, size: 0x8, addend: 0x0, symName: __ZNSt3__112__hash_tableINS_12basic_stringIcNS_11char_traitsIcEENS_9allocatorIcEEEENS_4hashIS6_EENS_8equal_toIS6_EENS4_IS6_EEE11__do_rehashILb1EEEvm, symObjAddr: 0x1A488, symBinAddr: 0x1AD60, symSize: 0x18C }
  - { offset: 0x9EBB1, size: 0x8, addend: 0x0, symName: __ZNSt3__16vectorI10clip_layerNS_9allocatorIS1_EEE8__appendEm, symObjAddr: 0x1A614, symBinAddr: 0x1AEEC, symSize: 0x1B4 }
  - { offset: 0x9EBC6, size: 0x8, addend: 0x0, symName: __ZNSt3__110unique_ptrINS_11__hash_nodeINS_12basic_stringIcNS_11char_traitsIcEENS_9allocatorIcEEEEPvEENS_22__hash_node_destructorINS5_IS9_EEEEED1B9nqe210106Ev, symObjAddr: 0x1A428, symBinAddr: 0x1AD00, symSize: 0x60 }
  - { offset: 0x9F22E, size: 0x8, addend: 0x0, symName: __ZNSt3__16vectorI10clip_layerNS_9allocatorIS1_EEE20__throw_length_errorB9nqe210106Ev, symObjAddr: 0x1A7C8, symBinAddr: 0x1B0A0, symSize: 0x14 }
  - { offset: 0x9F246, size: 0x8, addend: 0x0, symName: __ZNSt3__16vectorI11yasa2_blockNS_9allocatorIS1_EEE20__throw_length_errorB9nqe210106Ev, symObjAddr: 0x1A7DC, symBinAddr: 0x1B0B4, symSize: 0x14 }
  - { offset: 0x9F3C8, size: 0x8, addend: 0x0, symName: __ZNSt3__16vectorI11yasa2_stageNS_9allocatorIS1_EEE20__throw_length_errorB9nqe210106Ev, symObjAddr: 0x1A968, symBinAddr: 0x1B240, symSize: 0x14 }
  - { offset: 0x9F3E0, size: 0x8, addend: 0x0, symName: __ZNSt3__112basic_stringIcNS_11char_traitsIcEENS_9allocatorIcEEE25__init_copy_ctor_externalEPKcm, symObjAddr: 0x1A97C, symBinAddr: 0x1B254, symSize: 0x8C }
  - { offset: 0x9F835, size: 0x8, addend: 0x0, symName: __ZNSt3__110unique_ptrINS_11__tree_nodeINS_12__value_typeINS_12basic_stringIcNS_11char_traitsIcEENS_9allocatorIcEEEEN10clip_model10clamp_infoEEEPvEENS_22__tree_node_destructorINS6_ISD_EEEEED1B9nqe210106Ev, symObjAddr: 0x1ABB8, symBinAddr: 0x1B490, symSize: 0x60 }
  - { offset: 0xA021C, size: 0x8, addend: 0x0, symName: __ZNSt3__16__treeINS_12__value_typeI14projector_typeNS_12basic_stringIcNS_11char_traitsIcEENS_9allocatorIcEEEEEENS_19__map_value_compareIS2_NS_4pairIKS2_S8_EENS_4lessIS2_EELb1EEENS6_ISD_EEE30__emplace_hint_unique_key_argsIS2_JRKSD_EEENSB_INS_15__tree_iteratorIS9_PNS_11__tree_nodeIS9_PvEElEEbEENS_21__tree_const_iteratorIS9_SQ_lEERKT_DpOT0_, symObjAddr: 0x1B258, symBinAddr: 0x1BB30, symSize: 0xF8 }
  - { offset: 0xA05D9, size: 0x8, addend: 0x0, symName: __ZNSt3__16__treeINS_12__value_typeI14projector_typeNS_12basic_stringIcNS_11char_traitsIcEENS_9allocatorIcEEEEEENS_19__map_value_compareIS2_NS_4pairIKS2_S8_EENS_4lessIS2_EELb1EEENS6_ISD_EEE12__find_equalIS2_EERPNS_16__tree_node_baseIPvEENS_21__tree_const_iteratorIS9_PNS_11__tree_nodeIS9_SL_EElEERPNS_15__tree_end_nodeISN_EESO_RKT_, symObjAddr: 0x1B350, symBinAddr: 0x1BC28, symSize: 0x1A0 }
  - { offset: 0xA063F, size: 0x8, addend: 0x0, symName: __ZNSt3__16__treeINS_12__value_typeI14projector_typeNS_12basic_stringIcNS_11char_traitsIcEENS_9allocatorIcEEEEEENS_19__map_value_compareIS2_NS_4pairIKS2_S8_EENS_4lessIS2_EELb1EEENS6_ISD_EEE12__find_equalIS2_EERPNS_16__tree_node_baseIPvEENS_21__tree_const_iteratorIS9_PNS_11__tree_nodeIS9_SL_EElEERPNS_15__tree_end_nodeISN_EESO_RKT_, symObjAddr: 0x1B350, symBinAddr: 0x1BC28, symSize: 0x1A0 }
  - { offset: 0xA065C, size: 0x8, addend: 0x0, symName: __ZNSt3__16__treeINS_12__value_typeI14projector_typeNS_12basic_stringIcNS_11char_traitsIcEENS_9allocatorIcEEEEEENS_19__map_value_compareIS2_NS_4pairIKS2_S8_EENS_4lessIS2_EELb1EEENS6_ISD_EEE12__find_equalIS2_EERPNS_16__tree_node_baseIPvEENS_21__tree_const_iteratorIS9_PNS_11__tree_nodeIS9_SL_EElEERPNS_15__tree_end_nodeISN_EESO_RKT_, symObjAddr: 0x1B350, symBinAddr: 0x1BC28, symSize: 0x1A0 }
  - { offset: 0xA09CD, size: 0x8, addend: 0x0, symName: __ZNSt3__110unique_ptrINS_11__tree_nodeINS_12__value_typeI14projector_typeNS_12basic_stringIcNS_11char_traitsIcEENS_9allocatorIcEEEEEEPvEENS_22__tree_node_destructorINS7_ISC_EEEEED1B9nqe210106Ev, symObjAddr: 0x1B4F0, symBinAddr: 0x1BDC8, symSize: 0x60 }
  - { offset: 0xA0F55, size: 0x8, addend: 0x0, symName: __ZNSt3__117bad_function_callD1Ev, symObjAddr: 0x1B5E4, symBinAddr: 0x1BEBC, symSize: 0x4 }
  - { offset: 0xA0F77, size: 0x8, addend: 0x0, symName: __ZNSt3__117bad_function_callD1Ev, symObjAddr: 0x1B5E4, symBinAddr: 0x1BEBC, symSize: 0x4 }
  - { offset: 0xA0FAF, size: 0x8, addend: 0x0, symName: __ZNSt3__117bad_function_callD0Ev, symObjAddr: 0x1B5E8, symBinAddr: 0x1BEC0, symSize: 0x14 }
  - { offset: 0xA1A32, size: 0x8, addend: 0x0, symName: __GLOBAL__sub_I_clip.cpp, symObjAddr: 0x1E298, symBinAddr: 0x1C028, symSize: 0xA58 }
  - { offset: 0xA8149, size: 0x8, addend: 0x0, symName: __ZL20PROJECTOR_TYPE_NAMES, symObjAddr: 0x67438, symBinAddr: 0xB4AC0, symSize: 0x0 }
  - { offset: 0xB4DD1, size: 0x8, addend: 0x0, symName: __ZTV17clip_graph_cogvlm, symObjAddr: 0x1878, symBinAddr: 0xB0130, symSize: 0x0 }
  - { offset: 0xB6D8D, size: 0x8, addend: 0x0, symName: __ZN17clip_graph_cogvlm5buildEv, symObjAddr: 0x28, symBinAddr: 0x1CA80, symSize: 0x45C }
  - { offset: 0xB70A1, size: 0x8, addend: 0x0, symName: __ZN17clip_graph_cogvlmD1Ev, symObjAddr: 0x484, symBinAddr: 0x1CEDC, symSize: 0x44 }
  - { offset: 0xB72B1, size: 0x8, addend: 0x0, symName: __ZN17clip_graph_cogvlmD1Ev, symObjAddr: 0x484, symBinAddr: 0x1CEDC, symSize: 0x44 }
  - { offset: 0xB73C7, size: 0x8, addend: 0x0, symName: __ZN17clip_graph_cogvlmD0Ev, symObjAddr: 0x4C8, symBinAddr: 0x1CF20, symSize: 0x44 }
  - { offset: 0xB8E58, size: 0x8, addend: 0x0, symName: __GLOBAL__sub_I_cogvlm.cpp, symObjAddr: 0xBB4, symBinAddr: 0x1CF64, symSize: 0xA58 }
  - { offset: 0xBF30D, size: 0x8, addend: 0x0, symName: __ZL20PROJECTOR_TYPE_NAMES, symObjAddr: 0x69650, symBinAddr: 0xB4AD8, symSize: 0x0 }
  - { offset: 0xCBE30, size: 0x8, addend: 0x0, symName: __ZTV20clip_graph_conformer, symObjAddr: 0x2268, symBinAddr: 0xB0178, symSize: 0x0 }
  - { offset: 0xCDDF3, size: 0x8, addend: 0x0, symName: __ZN20clip_graph_conformer5buildEv, symObjAddr: 0x28, symBinAddr: 0x1D9BC, symSize: 0xC78 }
  - { offset: 0xCE98E, size: 0x8, addend: 0x0, symName: __ZN20clip_graph_conformerD1Ev, symObjAddr: 0xCA0, symBinAddr: 0x1E634, symSize: 0x44 }
  - { offset: 0xCEE43, size: 0x8, addend: 0x0, symName: __ZN20clip_graph_conformerD1Ev, symObjAddr: 0xCA0, symBinAddr: 0x1E634, symSize: 0x44 }
  - { offset: 0xCEF59, size: 0x8, addend: 0x0, symName: __ZN20clip_graph_conformerD0Ev, symObjAddr: 0xCE4, symBinAddr: 0x1E678, symSize: 0x44 }
  - { offset: 0xD09EA, size: 0x8, addend: 0x0, symName: __GLOBAL__sub_I_conformer.cpp, symObjAddr: 0x13D0, symBinAddr: 0x1E6BC, symSize: 0xA58 }
  - { offset: 0xD6E9D, size: 0x8, addend: 0x0, symName: __ZL20PROJECTOR_TYPE_NAMES, symObjAddr: 0x6F2B8, symBinAddr: 0xB4AF0, symSize: 0x0 }
  - { offset: 0xE3A42, size: 0x8, addend: 0x0, symName: __ZTV22clip_graph_deepseekocr, symObjAddr: 0x25D8, symBinAddr: 0xB01C0, symSize: 0x0 }
  - { offset: 0xE5C3E, size: 0x8, addend: 0x0, symName: __ZN22clip_graph_deepseekocr5buildEv, symObjAddr: 0x28, symBinAddr: 0x1F114, symSize: 0xF4C }
  - { offset: 0xE7453, size: 0x8, addend: 0x0, symName: __ZL11get_rel_posP12ggml_contextP11ggml_tensorS2_ii, symObjAddr: 0xF74, symBinAddr: 0x20060, symSize: 0x224 }
  - { offset: 0xE76F8, size: 0x8, addend: 0x0, symName: __ZN22clip_graph_deepseekocrD1Ev, symObjAddr: 0x1198, symBinAddr: 0x20284, symSize: 0x44 }
  - { offset: 0xE787C, size: 0x8, addend: 0x0, symName: __ZN22clip_graph_deepseekocrD1Ev, symObjAddr: 0x1198, symBinAddr: 0x20284, symSize: 0x44 }
  - { offset: 0xE7992, size: 0x8, addend: 0x0, symName: __ZN22clip_graph_deepseekocrD0Ev, symObjAddr: 0x11DC, symBinAddr: 0x202C8, symSize: 0x44 }
  - { offset: 0xE9423, size: 0x8, addend: 0x0, symName: __GLOBAL__sub_I_deepseekocr.cpp, symObjAddr: 0x18EC, symBinAddr: 0x2030C, symSize: 0xA58 }
  - { offset: 0xEF8D1, size: 0x8, addend: 0x0, symName: __ZL20PROJECTOR_TYPE_NAMES, symObjAddr: 0x6B6C0, symBinAddr: 0xB4B08, symSize: 0x0 }
  - { offset: 0xFC93C, size: 0x8, addend: 0x0, symName: __ZTV18clip_graph_dotsocr, symObjAddr: 0x17C0, symBinAddr: 0xB0208, symSize: 0x0 }
  - { offset: 0xFE783, size: 0x8, addend: 0x0, symName: '__ZTVNSt3__110__function6__funcIZN18clip_graph_dotsocr5buildEvE3$_0FP11ggml_tensorS5_RK10clip_layerEEE', symObjAddr: 0x1808, symBinAddr: 0xB0250, symSize: 0x0 }
  - { offset: 0xFE791, size: 0x8, addend: 0x0, symName: __ZN18clip_graph_dotsocr5buildEv, symObjAddr: 0x28, symBinAddr: 0x20D64, symSize: 0x294 }
  - { offset: 0xFEFA7, size: 0x8, addend: 0x0, symName: __ZN18clip_graph_dotsocrD1Ev, symObjAddr: 0x2BC, symBinAddr: 0x20FF8, symSize: 0x44 }
  - { offset: 0xFF0BD, size: 0x8, addend: 0x0, symName: __ZN18clip_graph_dotsocrD0Ev, symObjAddr: 0x300, symBinAddr: 0x2103C, symSize: 0x44 }
  - { offset: 0x100111, size: 0x8, addend: 0x0, symName: '__ZNSt3__110__function6__funcIZN18clip_graph_dotsocr5buildEvE3$_0FP11ggml_tensorS5_RK10clip_layerEED1Ev', symObjAddr: 0x994, symBinAddr: 0x21080, symSize: 0x4 }
  - { offset: 0x100140, size: 0x8, addend: 0x0, symName: '__ZNSt3__110__function6__funcIZN18clip_graph_dotsocr5buildEvE3$_0FP11ggml_tensorS5_RK10clip_layerEED0Ev', symObjAddr: 0x998, symBinAddr: 0x21084, symSize: 0x4 }
  - { offset: 0x1001B5, size: 0x8, addend: 0x0, symName: '__ZNKSt3__110__function6__funcIZN18clip_graph_dotsocr5buildEvE3$_0FP11ggml_tensorS5_RK10clip_layerEE7__cloneEv', symObjAddr: 0x99C, symBinAddr: 0x21088, symSize: 0x40 }
  - { offset: 0x100226, size: 0x8, addend: 0x0, symName: '__ZNKSt3__110__function6__funcIZN18clip_graph_dotsocr5buildEvE3$_0FP11ggml_tensorS5_RK10clip_layerEE7__cloneEPNS0_6__baseIS9_EE', symObjAddr: 0x9DC, symBinAddr: 0x210C8, symSize: 0x20 }
  - { offset: 0x10025B, size: 0x8, addend: 0x0, symName: '__ZNKSt3__110__function6__funcIZN18clip_graph_dotsocr5buildEvE3$_0FP11ggml_tensorS5_RK10clip_layerEE7__cloneEPNS0_6__baseIS9_EE', symObjAddr: 0x9DC, symBinAddr: 0x210C8, symSize: 0x20 }
  - { offset: 0x10027F, size: 0x8, addend: 0x0, symName: '__ZNKSt3__110__function6__funcIZN18clip_graph_dotsocr5buildEvE3$_0FP11ggml_tensorS5_RK10clip_layerEE7__cloneEPNS0_6__baseIS9_EE', symObjAddr: 0x9DC, symBinAddr: 0x210C8, symSize: 0x20 }
  - { offset: 0x1002A3, size: 0x8, addend: 0x0, symName: '__ZNSt3__110__function6__funcIZN18clip_graph_dotsocr5buildEvE3$_0FP11ggml_tensorS5_RK10clip_layerEE7destroyEv', symObjAddr: 0x9FC, symBinAddr: 0x210E8, symSize: 0x4 }
  - { offset: 0x1002C6, size: 0x8, addend: 0x0, symName: '__ZNSt3__110__function6__funcIZN18clip_graph_dotsocr5buildEvE3$_0FP11ggml_tensorS5_RK10clip_layerEE18destroy_deallocateEv', symObjAddr: 0xA00, symBinAddr: 0x210EC, symSize: 0x14 }
  - { offset: 0x100376, size: 0x8, addend: 0x0, symName: '__ZNSt3__110__function6__funcIZN18clip_graph_dotsocr5buildEvE3$_0FP11ggml_tensorS5_RK10clip_layerEEclEOS5_S8_', symObjAddr: 0xA14, symBinAddr: 0x21100, symSize: 0x54 }
  - { offset: 0x10050F, size: 0x8, addend: 0x0, symName: '__ZNKSt3__110__function6__funcIZN18clip_graph_dotsocr5buildEvE3$_0FP11ggml_tensorS5_RK10clip_layerEE6targetERKSt9type_info', symObjAddr: 0xA68, symBinAddr: 0x21154, symSize: 0x60 }
  - { offset: 0x1005DD, size: 0x8, addend: 0x0, symName: '__ZNKSt3__110__function6__funcIZN18clip_graph_dotsocr5buildEvE3$_0FP11ggml_tensorS5_RK10clip_layerEE11target_typeEv', symObjAddr: 0xAC8, symBinAddr: 0x211B4, symSize: 0xC }
  - { offset: 0x10103D, size: 0x8, addend: 0x0, symName: __GLOBAL__sub_I_dotsocr.cpp, symObjAddr: 0xB4C, symBinAddr: 0x211C0, symSize: 0xA58 }
  - { offset: 0x1074F8, size: 0x8, addend: 0x0, symName: __ZL20PROJECTOR_TYPE_NAMES, symObjAddr: 0x6E980, symBinAddr: 0xB4B20, symSize: 0x0 }
  - { offset: 0x1143AE, size: 0x8, addend: 0x0, symName: __ZTV18clip_graph_gemma4a, symObjAddr: 0x2320, symBinAddr: 0xB02E0, symSize: 0x0 }
  - { offset: 0x11640E, size: 0x8, addend: 0x0, symName: __ZN18clip_graph_gemma4a5buildEv, symObjAddr: 0x28, symBinAddr: 0x21C18, symSize: 0xDF0 }
  - { offset: 0x117CBD, size: 0x8, addend: 0x0, symName: __ZNK18clip_graph_gemma4a8build_mmEP11ggml_tensorS1_, symObjAddr: 0xE18, symBinAddr: 0x22A08, symSize: 0x240 }
  - { offset: 0x11844D, size: 0x8, addend: 0x0, symName: __ZN18clip_graph_gemma4aD1Ev, symObjAddr: 0x1058, symBinAddr: 0x22C48, symSize: 0x44 }
  - { offset: 0x118598, size: 0x8, addend: 0x0, symName: __ZN18clip_graph_gemma4aD1Ev, symObjAddr: 0x1058, symBinAddr: 0x22C48, symSize: 0x44 }
  - { offset: 0x1186AE, size: 0x8, addend: 0x0, symName: __ZN18clip_graph_gemma4aD0Ev, symObjAddr: 0x109C, symBinAddr: 0x22C8C, symSize: 0x44 }
  - { offset: 0x119EAF, size: 0x8, addend: 0x0, symName: __GLOBAL__sub_I_gemma4a.cpp, symObjAddr: 0x1788, symBinAddr: 0x22CD0, symSize: 0xA58 }
  - { offset: 0x120375, size: 0x8, addend: 0x0, symName: __ZL20PROJECTOR_TYPE_NAMES, symObjAddr: 0x71778, symBinAddr: 0xB4B38, symSize: 0x0 }
  - { offset: 0x12D4B5, size: 0x8, addend: 0x0, symName: __ZTV18clip_graph_gemma4v, symObjAddr: 0x1D50, symBinAddr: 0xB0328, symSize: 0x0 }
  - { offset: 0x12F344, size: 0x8, addend: 0x0, symName: '__ZTVNSt3__110__function6__funcIZN18clip_graph_gemma4v5buildEvE3$_0FP11ggml_tensorS5_RK10clip_layerEEE', symObjAddr: 0x1D98, symBinAddr: 0xB0370, symSize: 0x0 }
  - { offset: 0x12F352, size: 0x8, addend: 0x0, symName: __ZN18clip_graph_gemma4v5buildEv, symObjAddr: 0x28, symBinAddr: 0x23728, symSize: 0x4E0 }
  - { offset: 0x1304FA, size: 0x8, addend: 0x0, symName: __ZNK18clip_graph_gemma4v8build_mmEP11ggml_tensorS1_, symObjAddr: 0x508, symBinAddr: 0x23C08, symSize: 0x240 }
  - { offset: 0x130C8C, size: 0x8, addend: 0x0, symName: __ZN18clip_graph_gemma4vD1Ev, symObjAddr: 0x748, symBinAddr: 0x23E48, symSize: 0x44 }
  - { offset: 0x130DF4, size: 0x8, addend: 0x0, symName: __ZN18clip_graph_gemma4vD1Ev, symObjAddr: 0x748, symBinAddr: 0x23E48, symSize: 0x44 }
  - { offset: 0x130F0A, size: 0x8, addend: 0x0, symName: __ZN18clip_graph_gemma4vD0Ev, symObjAddr: 0x78C, symBinAddr: 0x23E8C, symSize: 0x44 }
  - { offset: 0x131D8F, size: 0x8, addend: 0x0, symName: '__ZNSt3__110__function6__funcIZN18clip_graph_gemma4v5buildEvE3$_0FP11ggml_tensorS5_RK10clip_layerEED1Ev', symObjAddr: 0xE20, symBinAddr: 0x23ED0, symSize: 0x4 }
  - { offset: 0x131DBE, size: 0x8, addend: 0x0, symName: '__ZNSt3__110__function6__funcIZN18clip_graph_gemma4v5buildEvE3$_0FP11ggml_tensorS5_RK10clip_layerEED0Ev', symObjAddr: 0xE24, symBinAddr: 0x23ED4, symSize: 0x4 }
  - { offset: 0x131E33, size: 0x8, addend: 0x0, symName: '__ZNKSt3__110__function6__funcIZN18clip_graph_gemma4v5buildEvE3$_0FP11ggml_tensorS5_RK10clip_layerEE7__cloneEv', symObjAddr: 0xE28, symBinAddr: 0x23ED8, symSize: 0x40 }
  - { offset: 0x131EA4, size: 0x8, addend: 0x0, symName: '__ZNKSt3__110__function6__funcIZN18clip_graph_gemma4v5buildEvE3$_0FP11ggml_tensorS5_RK10clip_layerEE7__cloneEPNS0_6__baseIS9_EE', symObjAddr: 0xE68, symBinAddr: 0x23F18, symSize: 0x20 }
  - { offset: 0x131ED9, size: 0x8, addend: 0x0, symName: '__ZNKSt3__110__function6__funcIZN18clip_graph_gemma4v5buildEvE3$_0FP11ggml_tensorS5_RK10clip_layerEE7__cloneEPNS0_6__baseIS9_EE', symObjAddr: 0xE68, symBinAddr: 0x23F18, symSize: 0x20 }
  - { offset: 0x131EFD, size: 0x8, addend: 0x0, symName: '__ZNKSt3__110__function6__funcIZN18clip_graph_gemma4v5buildEvE3$_0FP11ggml_tensorS5_RK10clip_layerEE7__cloneEPNS0_6__baseIS9_EE', symObjAddr: 0xE68, symBinAddr: 0x23F18, symSize: 0x20 }
  - { offset: 0x131F21, size: 0x8, addend: 0x0, symName: '__ZNSt3__110__function6__funcIZN18clip_graph_gemma4v5buildEvE3$_0FP11ggml_tensorS5_RK10clip_layerEE7destroyEv', symObjAddr: 0xE88, symBinAddr: 0x23F38, symSize: 0x4 }
  - { offset: 0x131F44, size: 0x8, addend: 0x0, symName: '__ZNSt3__110__function6__funcIZN18clip_graph_gemma4v5buildEvE3$_0FP11ggml_tensorS5_RK10clip_layerEE18destroy_deallocateEv', symObjAddr: 0xE8C, symBinAddr: 0x23F3C, symSize: 0x14 }
  - { offset: 0x132030, size: 0x8, addend: 0x0, symName: '__ZNSt3__110__function6__funcIZN18clip_graph_gemma4v5buildEvE3$_0FP11ggml_tensorS5_RK10clip_layerEEclEOS5_S8_', symObjAddr: 0xEA0, symBinAddr: 0x23F50, symSize: 0x13C }
  - { offset: 0x132337, size: 0x8, addend: 0x0, symName: '__ZNKSt3__110__function6__funcIZN18clip_graph_gemma4v5buildEvE3$_0FP11ggml_tensorS5_RK10clip_layerEE6targetERKSt9type_info', symObjAddr: 0xFDC, symBinAddr: 0x2408C, symSize: 0x60 }
  - { offset: 0x132405, size: 0x8, addend: 0x0, symName: '__ZNKSt3__110__function6__funcIZN18clip_graph_gemma4v5buildEvE3$_0FP11ggml_tensorS5_RK10clip_layerEE11target_typeEv', symObjAddr: 0x103C, symBinAddr: 0x240EC, symSize: 0xC }
  - { offset: 0x132DA4, size: 0x8, addend: 0x0, symName: __GLOBAL__sub_I_gemma4v.cpp, symObjAddr: 0x10C0, symBinAddr: 0x240F8, symSize: 0xA58 }
  - { offset: 0x139275, size: 0x8, addend: 0x0, symName: __ZL20PROJECTOR_TYPE_NAMES, symObjAddr: 0x6C5D0, symBinAddr: 0xB4B50, symSize: 0x0 }
  - { offset: 0x1462E0, size: 0x8, addend: 0x0, symName: __ZTV16clip_graph_glm4v, symObjAddr: 0x1C18, symBinAddr: 0xB03F0, symSize: 0x0 }
  - { offset: 0x148127, size: 0x8, addend: 0x0, symName: '__ZTVNSt3__110__function6__funcIZN16clip_graph_glm4v5buildEvE3$_0FP11ggml_tensorS5_RK10clip_layerEEE', symObjAddr: 0x1C60, symBinAddr: 0xB0438, symSize: 0x0 }
  - { offset: 0x148135, size: 0x8, addend: 0x0, symName: __ZN16clip_graph_glm4v5buildEv, symObjAddr: 0x28, symBinAddr: 0x24B50, symSize: 0x658 }
  - { offset: 0x148DAA, size: 0x8, addend: 0x0, symName: __ZN16clip_graph_glm4vD1Ev, symObjAddr: 0x680, symBinAddr: 0x251A8, symSize: 0x44 }
  - { offset: 0x148EC0, size: 0x8, addend: 0x0, symName: __ZN16clip_graph_glm4vD0Ev, symObjAddr: 0x6C4, symBinAddr: 0x251EC, symSize: 0x44 }
  - { offset: 0x149F14, size: 0x8, addend: 0x0, symName: '__ZNSt3__110__function6__funcIZN16clip_graph_glm4v5buildEvE3$_0FP11ggml_tensorS5_RK10clip_layerEED1Ev', symObjAddr: 0xD58, symBinAddr: 0x25230, symSize: 0x4 }
  - { offset: 0x149F43, size: 0x8, addend: 0x0, symName: '__ZNSt3__110__function6__funcIZN16clip_graph_glm4v5buildEvE3$_0FP11ggml_tensorS5_RK10clip_layerEED0Ev', symObjAddr: 0xD5C, symBinAddr: 0x25234, symSize: 0x4 }
  - { offset: 0x149FB8, size: 0x8, addend: 0x0, symName: '__ZNKSt3__110__function6__funcIZN16clip_graph_glm4v5buildEvE3$_0FP11ggml_tensorS5_RK10clip_layerEE7__cloneEv', symObjAddr: 0xD60, symBinAddr: 0x25238, symSize: 0x40 }
  - { offset: 0x14A029, size: 0x8, addend: 0x0, symName: '__ZNKSt3__110__function6__funcIZN16clip_graph_glm4v5buildEvE3$_0FP11ggml_tensorS5_RK10clip_layerEE7__cloneEPNS0_6__baseIS9_EE', symObjAddr: 0xDA0, symBinAddr: 0x25278, symSize: 0x20 }
  - { offset: 0x14A05E, size: 0x8, addend: 0x0, symName: '__ZNKSt3__110__function6__funcIZN16clip_graph_glm4v5buildEvE3$_0FP11ggml_tensorS5_RK10clip_layerEE7__cloneEPNS0_6__baseIS9_EE', symObjAddr: 0xDA0, symBinAddr: 0x25278, symSize: 0x20 }
  - { offset: 0x14A082, size: 0x8, addend: 0x0, symName: '__ZNKSt3__110__function6__funcIZN16clip_graph_glm4v5buildEvE3$_0FP11ggml_tensorS5_RK10clip_layerEE7__cloneEPNS0_6__baseIS9_EE', symObjAddr: 0xDA0, symBinAddr: 0x25278, symSize: 0x20 }
  - { offset: 0x14A0A6, size: 0x8, addend: 0x0, symName: '__ZNSt3__110__function6__funcIZN16clip_graph_glm4v5buildEvE3$_0FP11ggml_tensorS5_RK10clip_layerEE7destroyEv', symObjAddr: 0xDC0, symBinAddr: 0x25298, symSize: 0x4 }
  - { offset: 0x14A0C9, size: 0x8, addend: 0x0, symName: '__ZNSt3__110__function6__funcIZN16clip_graph_glm4v5buildEvE3$_0FP11ggml_tensorS5_RK10clip_layerEE18destroy_deallocateEv', symObjAddr: 0xDC4, symBinAddr: 0x2529C, symSize: 0x14 }
  - { offset: 0x14A179, size: 0x8, addend: 0x0, symName: '__ZNSt3__110__function6__funcIZN16clip_graph_glm4v5buildEvE3$_0FP11ggml_tensorS5_RK10clip_layerEEclEOS5_S8_', symObjAddr: 0xDD8, symBinAddr: 0x252B0, symSize: 0x50 }
  - { offset: 0x14A312, size: 0x8, addend: 0x0, symName: '__ZNKSt3__110__function6__funcIZN16clip_graph_glm4v5buildEvE3$_0FP11ggml_tensorS5_RK10clip_layerEE6targetERKSt9type_info', symObjAddr: 0xE28, symBinAddr: 0x25300, symSize: 0x60 }
  - { offset: 0x14A3E0, size: 0x8, addend: 0x0, symName: '__ZNKSt3__110__function6__funcIZN16clip_graph_glm4v5buildEvE3$_0FP11ggml_tensorS5_RK10clip_layerEE11target_typeEv', symObjAddr: 0xE88, symBinAddr: 0x25360, symSize: 0xC }
  - { offset: 0x14AE40, size: 0x8, addend: 0x0, symName: __GLOBAL__sub_I_glm4v.cpp, symObjAddr: 0xF18, symBinAddr: 0x2536C, symSize: 0xA58 }
  - { offset: 0x1512FB, size: 0x8, addend: 0x0, symName: __ZL20PROJECTOR_TYPE_NAMES, symObjAddr: 0x69328, symBinAddr: 0xB4B68, symSize: 0x0 }
  - { offset: 0x15DDEE, size: 0x8, addend: 0x0, symName: __ZTV21clip_graph_hunyuanocr, symObjAddr: 0x1760, symBinAddr: 0xB04B8, symSize: 0x0 }
  - { offset: 0x15FE84, size: 0x8, addend: 0x0, symName: __ZN21clip_graph_hunyuanocr5buildEv, symObjAddr: 0x28, symBinAddr: 0x25DC4, symSize: 0x44C }
  - { offset: 0x16068F, size: 0x8, addend: 0x0, symName: __ZN21clip_graph_hunyuanocrD1Ev, symObjAddr: 0x474, symBinAddr: 0x26210, symSize: 0x44 }
  - { offset: 0x1607A5, size: 0x8, addend: 0x0, symName: __ZN21clip_graph_hunyuanocrD0Ev, symObjAddr: 0x4B8, symBinAddr: 0x26254, symSize: 0x44 }
  - { offset: 0x162236, size: 0x8, addend: 0x0, symName: __GLOBAL__sub_I_hunyuanocr.cpp, symObjAddr: 0xBC8, symBinAddr: 0x26298, symSize: 0xA58 }
  - { offset: 0x1686EB, size: 0x8, addend: 0x0, symName: __ZL20PROJECTOR_TYPE_NAMES, symObjAddr: 0x68F38, symBinAddr: 0xB4B80, symSize: 0x0 }
  - { offset: 0x1751DE, size: 0x8, addend: 0x0, symName: __ZTV19clip_graph_internvl, symObjAddr: 0x1748, symBinAddr: 0xB0500, symSize: 0x0 }
  - { offset: 0x177274, size: 0x8, addend: 0x0, symName: __ZN19clip_graph_internvl5buildEv, symObjAddr: 0x28, symBinAddr: 0x26CF0, symSize: 0x33C }
  - { offset: 0x17781F, size: 0x8, addend: 0x0, symName: __ZN19clip_graph_internvlD1Ev, symObjAddr: 0x364, symBinAddr: 0x2702C, symSize: 0x44 }
  - { offset: 0x177935, size: 0x8, addend: 0x0, symName: __ZN19clip_graph_internvlD0Ev, symObjAddr: 0x3A8, symBinAddr: 0x27070, symSize: 0x44 }
  - { offset: 0x1793C6, size: 0x8, addend: 0x0, symName: __GLOBAL__sub_I_internvl.cpp, symObjAddr: 0xAC0, symBinAddr: 0x270B4, symSize: 0xA58 }
  - { offset: 0x17F87B, size: 0x8, addend: 0x0, symName: __ZL20PROJECTOR_TYPE_NAMES, symObjAddr: 0x6C150, symBinAddr: 0xB4B98, symSize: 0x0 }
  - { offset: 0x18C8E6, size: 0x8, addend: 0x0, symName: __ZTV18clip_graph_kimik25, symObjAddr: 0x1958, symBinAddr: 0xB0548, symSize: 0x0 }
  - { offset: 0x18E747, size: 0x8, addend: 0x0, symName: '__ZTVNSt3__110__function6__funcIZN18clip_graph_kimik255buildEvE3$_0FP11ggml_tensorS5_RK10clip_layerEEE', symObjAddr: 0x19A0, symBinAddr: 0xB0590, symSize: 0x0 }
  - { offset: 0x18E755, size: 0x8, addend: 0x0, symName: __ZN18clip_graph_kimik255buildEv, symObjAddr: 0x150, symBinAddr: 0x27C34, symSize: 0x324 }
  - { offset: 0x18ED95, size: 0x8, addend: 0x0, symName: __ZN18clip_graph_kimik2529resize_position_embeddings_3dEj, symObjAddr: 0x28, symBinAddr: 0x27B0C, symSize: 0x128 }
  - { offset: 0x18EEBE, size: 0x8, addend: 0x0, symName: __ZN18clip_graph_kimik255buildEv, symObjAddr: 0x150, symBinAddr: 0x27C34, symSize: 0x324 }
  - { offset: 0x18F2D8, size: 0x8, addend: 0x0, symName: __ZN18clip_graph_kimik25D1Ev, symObjAddr: 0x474, symBinAddr: 0x27F58, symSize: 0x44 }
  - { offset: 0x18F3EE, size: 0x8, addend: 0x0, symName: __ZN18clip_graph_kimik25D0Ev, symObjAddr: 0x4B8, symBinAddr: 0x27F9C, symSize: 0x44 }
  - { offset: 0x190442, size: 0x8, addend: 0x0, symName: '__ZNSt3__110__function6__funcIZN18clip_graph_kimik255buildEvE3$_0FP11ggml_tensorS5_RK10clip_layerEED1Ev', symObjAddr: 0xB4C, symBinAddr: 0x27FE0, symSize: 0x4 }
  - { offset: 0x190471, size: 0x8, addend: 0x0, symName: '__ZNSt3__110__function6__funcIZN18clip_graph_kimik255buildEvE3$_0FP11ggml_tensorS5_RK10clip_layerEED0Ev', symObjAddr: 0xB50, symBinAddr: 0x27FE4, symSize: 0x4 }
  - { offset: 0x1904E6, size: 0x8, addend: 0x0, symName: '__ZNKSt3__110__function6__funcIZN18clip_graph_kimik255buildEvE3$_0FP11ggml_tensorS5_RK10clip_layerEE7__cloneEv', symObjAddr: 0xB54, symBinAddr: 0x27FE8, symSize: 0x40 }
  - { offset: 0x190557, size: 0x8, addend: 0x0, symName: '__ZNKSt3__110__function6__funcIZN18clip_graph_kimik255buildEvE3$_0FP11ggml_tensorS5_RK10clip_layerEE7__cloneEPNS0_6__baseIS9_EE', symObjAddr: 0xB94, symBinAddr: 0x28028, symSize: 0x20 }
  - { offset: 0x19058C, size: 0x8, addend: 0x0, symName: '__ZNKSt3__110__function6__funcIZN18clip_graph_kimik255buildEvE3$_0FP11ggml_tensorS5_RK10clip_layerEE7__cloneEPNS0_6__baseIS9_EE', symObjAddr: 0xB94, symBinAddr: 0x28028, symSize: 0x20 }
  - { offset: 0x1905B0, size: 0x8, addend: 0x0, symName: '__ZNKSt3__110__function6__funcIZN18clip_graph_kimik255buildEvE3$_0FP11ggml_tensorS5_RK10clip_layerEE7__cloneEPNS0_6__baseIS9_EE', symObjAddr: 0xB94, symBinAddr: 0x28028, symSize: 0x20 }
  - { offset: 0x1905D4, size: 0x8, addend: 0x0, symName: '__ZNSt3__110__function6__funcIZN18clip_graph_kimik255buildEvE3$_0FP11ggml_tensorS5_RK10clip_layerEE7destroyEv', symObjAddr: 0xBB4, symBinAddr: 0x28048, symSize: 0x4 }
  - { offset: 0x1905F7, size: 0x8, addend: 0x0, symName: '__ZNSt3__110__function6__funcIZN18clip_graph_kimik255buildEvE3$_0FP11ggml_tensorS5_RK10clip_layerEE18destroy_deallocateEv', symObjAddr: 0xBB8, symBinAddr: 0x2804C, symSize: 0x14 }
  - { offset: 0x1906A7, size: 0x8, addend: 0x0, symName: '__ZNSt3__110__function6__funcIZN18clip_graph_kimik255buildEvE3$_0FP11ggml_tensorS5_RK10clip_layerEEclEOS5_S8_', symObjAddr: 0xBCC, symBinAddr: 0x28060, symSize: 0x2C }
  - { offset: 0x1907C8, size: 0x8, addend: 0x0, symName: '__ZNKSt3__110__function6__funcIZN18clip_graph_kimik255buildEvE3$_0FP11ggml_tensorS5_RK10clip_layerEE6targetERKSt9type_info', symObjAddr: 0xBF8, symBinAddr: 0x2808C, symSize: 0x60 }
  - { offset: 0x190896, size: 0x8, addend: 0x0, symName: '__ZNKSt3__110__function6__funcIZN18clip_graph_kimik255buildEvE3$_0FP11ggml_tensorS5_RK10clip_layerEE11target_typeEv', symObjAddr: 0xC58, symBinAddr: 0x280EC, symSize: 0xC }
  - { offset: 0x1912F6, size: 0x8, addend: 0x0, symName: __GLOBAL__sub_I_kimik25.cpp, symObjAddr: 0xCE0, symBinAddr: 0x280F8, symSize: 0xA58 }
  - { offset: 0x1977BB, size: 0x8, addend: 0x0, symName: __ZL20PROJECTOR_TYPE_NAMES, symObjAddr: 0x6B800, symBinAddr: 0xB4BB0, symSize: 0x0 }
  - { offset: 0x1A4826, size: 0x8, addend: 0x0, symName: __ZTV17clip_graph_kimivl, symObjAddr: 0x1768, symBinAddr: 0xB0610, symSize: 0x0 }
  - { offset: 0x1A666D, size: 0x8, addend: 0x0, symName: '__ZTVNSt3__110__function6__funcIZN17clip_graph_kimivl5buildEvE3$_0FP11ggml_tensorS5_RK10clip_layerEEE', symObjAddr: 0x17B0, symBinAddr: 0xB0658, symSize: 0x0 }
  - { offset: 0x1A667B, size: 0x8, addend: 0x0, symName: __ZN17clip_graph_kimivl5buildEv, symObjAddr: 0x28, symBinAddr: 0x28B50, symSize: 0x320 }
  - { offset: 0x1A6FE7, size: 0x8, addend: 0x0, symName: __ZN17clip_graph_kimivlD1Ev, symObjAddr: 0x348, symBinAddr: 0x28E70, symSize: 0x44 }
  - { offset: 0x1A70FD, size: 0x8, addend: 0x0, symName: __ZN17clip_graph_kimivlD0Ev, symObjAddr: 0x38C, symBinAddr: 0x28EB4, symSize: 0x44 }
  - { offset: 0x1A8151, size: 0x8, addend: 0x0, symName: '__ZNSt3__110__function6__funcIZN17clip_graph_kimivl5buildEvE3$_0FP11ggml_tensorS5_RK10clip_layerEED1Ev', symObjAddr: 0xA20, symBinAddr: 0x28EF8, symSize: 0x4 }
  - { offset: 0x1A8180, size: 0x8, addend: 0x0, symName: '__ZNSt3__110__function6__funcIZN17clip_graph_kimivl5buildEvE3$_0FP11ggml_tensorS5_RK10clip_layerEED0Ev', symObjAddr: 0xA24, symBinAddr: 0x28EFC, symSize: 0x4 }
  - { offset: 0x1A81F5, size: 0x8, addend: 0x0, symName: '__ZNKSt3__110__function6__funcIZN17clip_graph_kimivl5buildEvE3$_0FP11ggml_tensorS5_RK10clip_layerEE7__cloneEv', symObjAddr: 0xA28, symBinAddr: 0x28F00, symSize: 0x40 }
  - { offset: 0x1A8266, size: 0x8, addend: 0x0, symName: '__ZNKSt3__110__function6__funcIZN17clip_graph_kimivl5buildEvE3$_0FP11ggml_tensorS5_RK10clip_layerEE7__cloneEPNS0_6__baseIS9_EE', symObjAddr: 0xA68, symBinAddr: 0x28F40, symSize: 0x20 }
  - { offset: 0x1A829B, size: 0x8, addend: 0x0, symName: '__ZNKSt3__110__function6__funcIZN17clip_graph_kimivl5buildEvE3$_0FP11ggml_tensorS5_RK10clip_layerEE7__cloneEPNS0_6__baseIS9_EE', symObjAddr: 0xA68, symBinAddr: 0x28F40, symSize: 0x20 }
  - { offset: 0x1A82BF, size: 0x8, addend: 0x0, symName: '__ZNKSt3__110__function6__funcIZN17clip_graph_kimivl5buildEvE3$_0FP11ggml_tensorS5_RK10clip_layerEE7__cloneEPNS0_6__baseIS9_EE', symObjAddr: 0xA68, symBinAddr: 0x28F40, symSize: 0x20 }
  - { offset: 0x1A82E3, size: 0x8, addend: 0x0, symName: '__ZNSt3__110__function6__funcIZN17clip_graph_kimivl5buildEvE3$_0FP11ggml_tensorS5_RK10clip_layerEE7destroyEv', symObjAddr: 0xA88, symBinAddr: 0x28F60, symSize: 0x4 }
  - { offset: 0x1A8306, size: 0x8, addend: 0x0, symName: '__ZNSt3__110__function6__funcIZN17clip_graph_kimivl5buildEvE3$_0FP11ggml_tensorS5_RK10clip_layerEE18destroy_deallocateEv', symObjAddr: 0xA8C, symBinAddr: 0x28F64, symSize: 0x14 }
  - { offset: 0x1A83B6, size: 0x8, addend: 0x0, symName: '__ZNSt3__110__function6__funcIZN17clip_graph_kimivl5buildEvE3$_0FP11ggml_tensorS5_RK10clip_layerEEclEOS5_S8_', symObjAddr: 0xAA0, symBinAddr: 0x28F78, symSize: 0x2C }
  - { offset: 0x1A84D7, size: 0x8, addend: 0x0, symName: '__ZNKSt3__110__function6__funcIZN17clip_graph_kimivl5buildEvE3$_0FP11ggml_tensorS5_RK10clip_layerEE6targetERKSt9type_info', symObjAddr: 0xACC, symBinAddr: 0x28FA4, symSize: 0x60 }
  - { offset: 0x1A85A5, size: 0x8, addend: 0x0, symName: '__ZNKSt3__110__function6__funcIZN17clip_graph_kimivl5buildEvE3$_0FP11ggml_tensorS5_RK10clip_layerEE11target_typeEv', symObjAddr: 0xB2C, symBinAddr: 0x29004, symSize: 0xC }
  - { offset: 0x1A9005, size: 0x8, addend: 0x0, symName: __GLOBAL__sub_I_kimivl.cpp, symObjAddr: 0xBB4, symBinAddr: 0x29010, symSize: 0xA58 }
  - { offset: 0x1AF4C0, size: 0x8, addend: 0x0, symName: __ZL20PROJECTOR_TYPE_NAMES, symObjAddr: 0x6BFC8, symBinAddr: 0xB4BC8, symSize: 0x0 }
  - { offset: 0x1BC52B, size: 0x8, addend: 0x0, symName: __ZTV17clip_graph_llama4, symObjAddr: 0x1A38, symBinAddr: 0xB06D8, symSize: 0x0 }
  - { offset: 0x1BE372, size: 0x8, addend: 0x0, symName: '__ZTVNSt3__110__function6__funcIZN17clip_graph_llama45buildEvE3$_0FP11ggml_tensorS5_RK10clip_layerEEE', symObjAddr: 0x1A80, symBinAddr: 0xB0720, symSize: 0x0 }
  - { offset: 0x1BE380, size: 0x8, addend: 0x0, symName: __ZN17clip_graph_llama45buildEv, symObjAddr: 0x28, symBinAddr: 0x29A68, symSize: 0x4C4 }
  - { offset: 0x1BEF52, size: 0x8, addend: 0x0, symName: __ZN17clip_graph_llama4D1Ev, symObjAddr: 0x4EC, symBinAddr: 0x29F2C, symSize: 0x44 }
  - { offset: 0x1BF068, size: 0x8, addend: 0x0, symName: __ZN17clip_graph_llama4D0Ev, symObjAddr: 0x530, symBinAddr: 0x29F70, symSize: 0x44 }
  - { offset: 0x1C00BC, size: 0x8, addend: 0x0, symName: '__ZNSt3__110__function6__funcIZN17clip_graph_llama45buildEvE3$_0FP11ggml_tensorS5_RK10clip_layerEED1Ev', symObjAddr: 0xBC4, symBinAddr: 0x29FB4, symSize: 0x4 }
  - { offset: 0x1C00EB, size: 0x8, addend: 0x0, symName: '__ZNSt3__110__function6__funcIZN17clip_graph_llama45buildEvE3$_0FP11ggml_tensorS5_RK10clip_layerEED0Ev', symObjAddr: 0xBC8, symBinAddr: 0x29FB8, symSize: 0x4 }
  - { offset: 0x1C0160, size: 0x8, addend: 0x0, symName: '__ZNKSt3__110__function6__funcIZN17clip_graph_llama45buildEvE3$_0FP11ggml_tensorS5_RK10clip_layerEE7__cloneEv', symObjAddr: 0xBCC, symBinAddr: 0x29FBC, symSize: 0x40 }
  - { offset: 0x1C01D1, size: 0x8, addend: 0x0, symName: '__ZNKSt3__110__function6__funcIZN17clip_graph_llama45buildEvE3$_0FP11ggml_tensorS5_RK10clip_layerEE7__cloneEPNS0_6__baseIS9_EE', symObjAddr: 0xC0C, symBinAddr: 0x29FFC, symSize: 0x20 }
  - { offset: 0x1C0206, size: 0x8, addend: 0x0, symName: '__ZNKSt3__110__function6__funcIZN17clip_graph_llama45buildEvE3$_0FP11ggml_tensorS5_RK10clip_layerEE7__cloneEPNS0_6__baseIS9_EE', symObjAddr: 0xC0C, symBinAddr: 0x29FFC, symSize: 0x20 }
  - { offset: 0x1C022A, size: 0x8, addend: 0x0, symName: '__ZNKSt3__110__function6__funcIZN17clip_graph_llama45buildEvE3$_0FP11ggml_tensorS5_RK10clip_layerEE7__cloneEPNS0_6__baseIS9_EE', symObjAddr: 0xC0C, symBinAddr: 0x29FFC, symSize: 0x20 }
  - { offset: 0x1C024E, size: 0x8, addend: 0x0, symName: '__ZNSt3__110__function6__funcIZN17clip_graph_llama45buildEvE3$_0FP11ggml_tensorS5_RK10clip_layerEE7destroyEv', symObjAddr: 0xC2C, symBinAddr: 0x2A01C, symSize: 0x4 }
  - { offset: 0x1C0271, size: 0x8, addend: 0x0, symName: '__ZNSt3__110__function6__funcIZN17clip_graph_llama45buildEvE3$_0FP11ggml_tensorS5_RK10clip_layerEE18destroy_deallocateEv', symObjAddr: 0xC30, symBinAddr: 0x2A020, symSize: 0x14 }
  - { offset: 0x1C0321, size: 0x8, addend: 0x0, symName: '__ZNSt3__110__function6__funcIZN17clip_graph_llama45buildEvE3$_0FP11ggml_tensorS5_RK10clip_layerEEclEOS5_S8_', symObjAddr: 0xC44, symBinAddr: 0x2A034, symSize: 0x2C }
  - { offset: 0x1C0442, size: 0x8, addend: 0x0, symName: '__ZNKSt3__110__function6__funcIZN17clip_graph_llama45buildEvE3$_0FP11ggml_tensorS5_RK10clip_layerEE6targetERKSt9type_info', symObjAddr: 0xC70, symBinAddr: 0x2A060, symSize: 0x60 }
  - { offset: 0x1C0510, size: 0x8, addend: 0x0, symName: '__ZNKSt3__110__function6__funcIZN17clip_graph_llama45buildEvE3$_0FP11ggml_tensorS5_RK10clip_layerEE11target_typeEv', symObjAddr: 0xCD0, symBinAddr: 0x2A0C0, symSize: 0xC }
  - { offset: 0x1C0F70, size: 0x8, addend: 0x0, symName: __GLOBAL__sub_I_llama4.cpp, symObjAddr: 0xD60, symBinAddr: 0x2A0CC, symSize: 0xA58 }
  - { offset: 0x1C742B, size: 0x8, addend: 0x0, symName: __ZL20PROJECTOR_TYPE_NAMES, symObjAddr: 0x74B80, symBinAddr: 0xB4BE0, symSize: 0x0 }
  - { offset: 0x1D5427, size: 0x8, addend: 0x0, symName: __ZTV16clip_graph_llava, symObjAddr: 0x2930, symBinAddr: 0xB07A0, symSize: 0x0 }
  - { offset: 0x1D7A39, size: 0x8, addend: 0x0, symName: __ZN16clip_graph_llava5buildEv, symObjAddr: 0x28, symBinAddr: 0x2AB24, symSize: 0x13BC }
  - { offset: 0x1D98A2, size: 0x8, addend: 0x0, symName: __ZN16clip_graph_llavaD1Ev, symObjAddr: 0x13E4, symBinAddr: 0x2BEE0, symSize: 0x44 }
  - { offset: 0x1D99B8, size: 0x8, addend: 0x0, symName: __ZN16clip_graph_llavaD0Ev, symObjAddr: 0x1428, symBinAddr: 0x2BF24, symSize: 0x44 }
  - { offset: 0x1DB449, size: 0x8, addend: 0x0, symName: __GLOBAL__sub_I_llava.cpp, symObjAddr: 0x1C2C, symBinAddr: 0x2BF68, symSize: 0xA58 }
  - { offset: 0x1E18F7, size: 0x8, addend: 0x0, symName: __ZL20PROJECTOR_TYPE_NAMES, symObjAddr: 0x69BE0, symBinAddr: 0xB4BF8, symSize: 0x0 }
  - { offset: 0x1EE3EA, size: 0x8, addend: 0x0, symName: __ZTV19clip_graph_minicpmv, symObjAddr: 0x19B0, symBinAddr: 0xB07E8, symSize: 0x0 }
  - { offset: 0x1F0480, size: 0x8, addend: 0x0, symName: __ZN19clip_graph_minicpmv5buildEv, symObjAddr: 0x28, symBinAddr: 0x2C9C0, symSize: 0x590 }
  - { offset: 0x1F0E1C, size: 0x8, addend: 0x0, symName: __ZN19clip_graph_minicpmvD1Ev, symObjAddr: 0x5B8, symBinAddr: 0x2CF50, symSize: 0x44 }
  - { offset: 0x1F0F32, size: 0x8, addend: 0x0, symName: __ZN19clip_graph_minicpmvD0Ev, symObjAddr: 0x5FC, symBinAddr: 0x2CF94, symSize: 0x44 }
  - { offset: 0x1F29C3, size: 0x8, addend: 0x0, symName: __GLOBAL__sub_I_minicpmv.cpp, symObjAddr: 0xD0C, symBinAddr: 0x2CFD8, symSize: 0xA58 }
  - { offset: 0x1F8E78, size: 0x8, addend: 0x0, symName: __ZL20PROJECTOR_TYPE_NAMES, symObjAddr: 0x77240, symBinAddr: 0xB4C10, symSize: 0x0 }
  - { offset: 0x206FA4, size: 0x8, addend: 0x0, symName: __ZTV22clip_graph_mobilenetv5, symObjAddr: 0x2D20, symBinAddr: 0xB0830, symSize: 0x0 }
  - { offset: 0x20912B, size: 0x8, addend: 0x0, symName: __ZN22clip_graph_mobilenetv511rms_norm_2dEP11ggml_tensorS1_f, symObjAddr: 0x28, symBinAddr: 0x2DA30, symSize: 0x98 }
  - { offset: 0x20928A, size: 0x8, addend: 0x0, symName: __ZN22clip_graph_mobilenetv511pad_same_2dEP11ggml_tensoriiiiii, symObjAddr: 0xC0, symBinAddr: 0x2DAC8, symSize: 0xB4 }
  - { offset: 0x2094D4, size: 0x8, addend: 0x0, symName: __ZN22clip_graph_mobilenetv519build_edge_residualEP11ggml_tensorRK17mobilenetv5_blocki, symObjAddr: 0x174, symBinAddr: 0x2DB7C, symSize: 0x2AC }
  - { offset: 0x2098B5, size: 0x8, addend: 0x0, symName: __ZN22clip_graph_mobilenetv523build_inverted_residualEP11ggml_tensorRK17mobilenetv5_blocki, symObjAddr: 0x420, symBinAddr: 0x2DE28, symSize: 0x478 }
  - { offset: 0x209EFA, size: 0x8, addend: 0x0, symName: __ZN22clip_graph_mobilenetv520build_mobilenet_attnEP11ggml_tensorRK17mobilenetv5_block, symObjAddr: 0x898, symBinAddr: 0x2E2A0, symSize: 0x684 }
  - { offset: 0x20A9D5, size: 0x8, addend: 0x0, symName: __ZN22clip_graph_mobilenetv55buildEv, symObjAddr: 0xF1C, symBinAddr: 0x2E924, symSize: 0x980 }
  - { offset: 0x20C170, size: 0x8, addend: 0x0, symName: __ZN22clip_graph_mobilenetv5D1Ev, symObjAddr: 0x189C, symBinAddr: 0x2F2A4, symSize: 0x44 }
  - { offset: 0x20C286, size: 0x8, addend: 0x0, symName: __ZN22clip_graph_mobilenetv5D0Ev, symObjAddr: 0x18E0, symBinAddr: 0x2F2E8, symSize: 0x44 }
  - { offset: 0x20DD17, size: 0x8, addend: 0x0, symName: __GLOBAL__sub_I_mobilenetv5.cpp, symObjAddr: 0x2098, symBinAddr: 0x2F32C, symSize: 0xA58 }
  - { offset: 0x2141CC, size: 0x8, addend: 0x0, symName: __ZL20PROJECTOR_TYPE_NAMES, symObjAddr: 0x68B80, symBinAddr: 0xB4C28, symSize: 0x0 }
  - { offset: 0x220CBF, size: 0x8, addend: 0x0, symName: __ZTV25clip_graph_nemotron_v2_vl, symObjAddr: 0x1698, symBinAddr: 0xB0878, symSize: 0x0 }
  - { offset: 0x222D55, size: 0x8, addend: 0x0, symName: __ZN25clip_graph_nemotron_v2_vl5buildEv, symObjAddr: 0x28, symBinAddr: 0x2FD84, symSize: 0x298 }
  - { offset: 0x2231AA, size: 0x8, addend: 0x0, symName: __ZN25clip_graph_nemotron_v2_vlD1Ev, symObjAddr: 0x2C0, symBinAddr: 0x3001C, symSize: 0x44 }
  - { offset: 0x2232C0, size: 0x8, addend: 0x0, symName: __ZN25clip_graph_nemotron_v2_vlD0Ev, symObjAddr: 0x304, symBinAddr: 0x30060, symSize: 0x44 }
  - { offset: 0x224D51, size: 0x8, addend: 0x0, symName: __GLOBAL__sub_I_nemotron_v2_vl.cpp, symObjAddr: 0xA14, symBinAddr: 0x300A4, symSize: 0xA58 }
  - { offset: 0x22B206, size: 0x8, addend: 0x0, symName: __ZL20PROJECTOR_TYPE_NAMES, symObjAddr: 0x6B618, symBinAddr: 0xB4C40, symSize: 0x0 }
  - { offset: 0x238271, size: 0x8, addend: 0x0, symName: __ZTV20clip_graph_paddleocr, symObjAddr: 0x16B8, symBinAddr: 0xB08C0, symSize: 0x0 }
  - { offset: 0x23A0B8, size: 0x8, addend: 0x0, symName: '__ZTVNSt3__110__function6__funcIZN20clip_graph_paddleocr5buildEvE3$_0FP11ggml_tensorS5_RK10clip_layerEEE', symObjAddr: 0x1700, symBinAddr: 0xB0908, symSize: 0x0 }
  - { offset: 0x23A0C6, size: 0x8, addend: 0x0, symName: __ZN20clip_graph_paddleocr5buildEv, symObjAddr: 0x28, symBinAddr: 0x30AFC, symSize: 0x258 }
  - { offset: 0x23A8E3, size: 0x8, addend: 0x0, symName: __ZN20clip_graph_paddleocrD1Ev, symObjAddr: 0x280, symBinAddr: 0x30D54, symSize: 0x44 }
  - { offset: 0x23A9F9, size: 0x8, addend: 0x0, symName: __ZN20clip_graph_paddleocrD0Ev, symObjAddr: 0x2C4, symBinAddr: 0x30D98, symSize: 0x44 }
  - { offset: 0x23BA4D, size: 0x8, addend: 0x0, symName: '__ZNSt3__110__function6__funcIZN20clip_graph_paddleocr5buildEvE3$_0FP11ggml_tensorS5_RK10clip_layerEED1Ev', symObjAddr: 0x958, symBinAddr: 0x30DDC, symSize: 0x4 }
  - { offset: 0x23BA7C, size: 0x8, addend: 0x0, symName: '__ZNSt3__110__function6__funcIZN20clip_graph_paddleocr5buildEvE3$_0FP11ggml_tensorS5_RK10clip_layerEED0Ev', symObjAddr: 0x95C, symBinAddr: 0x30DE0, symSize: 0x4 }
  - { offset: 0x23BAF1, size: 0x8, addend: 0x0, symName: '__ZNKSt3__110__function6__funcIZN20clip_graph_paddleocr5buildEvE3$_0FP11ggml_tensorS5_RK10clip_layerEE7__cloneEv', symObjAddr: 0x960, symBinAddr: 0x30DE4, symSize: 0x40 }
  - { offset: 0x23BB62, size: 0x8, addend: 0x0, symName: '__ZNKSt3__110__function6__funcIZN20clip_graph_paddleocr5buildEvE3$_0FP11ggml_tensorS5_RK10clip_layerEE7__cloneEPNS0_6__baseIS9_EE', symObjAddr: 0x9A0, symBinAddr: 0x30E24, symSize: 0x20 }
  - { offset: 0x23BB97, size: 0x8, addend: 0x0, symName: '__ZNKSt3__110__function6__funcIZN20clip_graph_paddleocr5buildEvE3$_0FP11ggml_tensorS5_RK10clip_layerEE7__cloneEPNS0_6__baseIS9_EE', symObjAddr: 0x9A0, symBinAddr: 0x30E24, symSize: 0x20 }
  - { offset: 0x23BBBB, size: 0x8, addend: 0x0, symName: '__ZNKSt3__110__function6__funcIZN20clip_graph_paddleocr5buildEvE3$_0FP11ggml_tensorS5_RK10clip_layerEE7__cloneEPNS0_6__baseIS9_EE', symObjAddr: 0x9A0, symBinAddr: 0x30E24, symSize: 0x20 }
  - { offset: 0x23BBDF, size: 0x8, addend: 0x0, symName: '__ZNSt3__110__function6__funcIZN20clip_graph_paddleocr5buildEvE3$_0FP11ggml_tensorS5_RK10clip_layerEE7destroyEv', symObjAddr: 0x9C0, symBinAddr: 0x30E44, symSize: 0x4 }
  - { offset: 0x23BC02, size: 0x8, addend: 0x0, symName: '__ZNSt3__110__function6__funcIZN20clip_graph_paddleocr5buildEvE3$_0FP11ggml_tensorS5_RK10clip_layerEE18destroy_deallocateEv', symObjAddr: 0x9C4, symBinAddr: 0x30E48, symSize: 0x14 }
  - { offset: 0x23BCB2, size: 0x8, addend: 0x0, symName: '__ZNSt3__110__function6__funcIZN20clip_graph_paddleocr5buildEvE3$_0FP11ggml_tensorS5_RK10clip_layerEEclEOS5_S8_', symObjAddr: 0x9D8, symBinAddr: 0x30E5C, symSize: 0x54 }
  - { offset: 0x23BE4B, size: 0x8, addend: 0x0, symName: '__ZNKSt3__110__function6__funcIZN20clip_graph_paddleocr5buildEvE3$_0FP11ggml_tensorS5_RK10clip_layerEE6targetERKSt9type_info', symObjAddr: 0xA2C, symBinAddr: 0x30EB0, symSize: 0x60 }
  - { offset: 0x23BF19, size: 0x8, addend: 0x0, symName: '__ZNKSt3__110__function6__funcIZN20clip_graph_paddleocr5buildEvE3$_0FP11ggml_tensorS5_RK10clip_layerEE11target_typeEv', symObjAddr: 0xA8C, symBinAddr: 0x30F10, symSize: 0xC }
  - { offset: 0x23C979, size: 0x8, addend: 0x0, symName: __GLOBAL__sub_I_paddleocr.cpp, symObjAddr: 0xB14, symBinAddr: 0x30F1C, symSize: 0xA58 }
  - { offset: 0x242E34, size: 0x8, addend: 0x0, symName: __ZL20PROJECTOR_TYPE_NAMES, symObjAddr: 0x6BF30, symBinAddr: 0xB4C58, symSize: 0x0 }
  - { offset: 0x24FE9F, size: 0x8, addend: 0x0, symName: __ZTV18clip_graph_pixtral, symObjAddr: 0x18F0, symBinAddr: 0xB0988, symSize: 0x0 }
  - { offset: 0x251CE6, size: 0x8, addend: 0x0, symName: '__ZTVNSt3__110__function6__funcIZN18clip_graph_pixtral5buildEvE3$_0FP11ggml_tensorS5_RK10clip_layerEEE', symObjAddr: 0x1938, symBinAddr: 0xB09D0, symSize: 0x0 }
  - { offset: 0x251CF4, size: 0x8, addend: 0x0, symName: __ZN18clip_graph_pixtral5buildEv, symObjAddr: 0x28, symBinAddr: 0x31974, symSize: 0x408 }
  - { offset: 0x25296D, size: 0x8, addend: 0x0, symName: __ZN18clip_graph_pixtralD1Ev, symObjAddr: 0x430, symBinAddr: 0x31D7C, symSize: 0x44 }
  - { offset: 0x252A83, size: 0x8, addend: 0x0, symName: __ZN18clip_graph_pixtralD0Ev, symObjAddr: 0x474, symBinAddr: 0x31DC0, symSize: 0x44 }
  - { offset: 0x253AD7, size: 0x8, addend: 0x0, symName: '__ZNSt3__110__function6__funcIZN18clip_graph_pixtral5buildEvE3$_0FP11ggml_tensorS5_RK10clip_layerEED1Ev', symObjAddr: 0xB08, symBinAddr: 0x31E04, symSize: 0x4 }
  - { offset: 0x253B06, size: 0x8, addend: 0x0, symName: '__ZNSt3__110__function6__funcIZN18clip_graph_pixtral5buildEvE3$_0FP11ggml_tensorS5_RK10clip_layerEED0Ev', symObjAddr: 0xB0C, symBinAddr: 0x31E08, symSize: 0x4 }
  - { offset: 0x253B7B, size: 0x8, addend: 0x0, symName: '__ZNKSt3__110__function6__funcIZN18clip_graph_pixtral5buildEvE3$_0FP11ggml_tensorS5_RK10clip_layerEE7__cloneEv', symObjAddr: 0xB10, symBinAddr: 0x31E0C, symSize: 0x40 }
  - { offset: 0x253BEC, size: 0x8, addend: 0x0, symName: '__ZNKSt3__110__function6__funcIZN18clip_graph_pixtral5buildEvE3$_0FP11ggml_tensorS5_RK10clip_layerEE7__cloneEPNS0_6__baseIS9_EE', symObjAddr: 0xB50, symBinAddr: 0x31E4C, symSize: 0x20 }
  - { offset: 0x253C21, size: 0x8, addend: 0x0, symName: '__ZNKSt3__110__function6__funcIZN18clip_graph_pixtral5buildEvE3$_0FP11ggml_tensorS5_RK10clip_layerEE7__cloneEPNS0_6__baseIS9_EE', symObjAddr: 0xB50, symBinAddr: 0x31E4C, symSize: 0x20 }
  - { offset: 0x253C45, size: 0x8, addend: 0x0, symName: '__ZNKSt3__110__function6__funcIZN18clip_graph_pixtral5buildEvE3$_0FP11ggml_tensorS5_RK10clip_layerEE7__cloneEPNS0_6__baseIS9_EE', symObjAddr: 0xB50, symBinAddr: 0x31E4C, symSize: 0x20 }
  - { offset: 0x253C69, size: 0x8, addend: 0x0, symName: '__ZNSt3__110__function6__funcIZN18clip_graph_pixtral5buildEvE3$_0FP11ggml_tensorS5_RK10clip_layerEE7destroyEv', symObjAddr: 0xB70, symBinAddr: 0x31E6C, symSize: 0x4 }
  - { offset: 0x253C8C, size: 0x8, addend: 0x0, symName: '__ZNSt3__110__function6__funcIZN18clip_graph_pixtral5buildEvE3$_0FP11ggml_tensorS5_RK10clip_layerEE18destroy_deallocateEv', symObjAddr: 0xB74, symBinAddr: 0x31E70, symSize: 0x14 }
  - { offset: 0x253D3C, size: 0x8, addend: 0x0, symName: '__ZNSt3__110__function6__funcIZN18clip_graph_pixtral5buildEvE3$_0FP11ggml_tensorS5_RK10clip_layerEEclEOS5_S8_', symObjAddr: 0xB88, symBinAddr: 0x31E84, symSize: 0x2C }
  - { offset: 0x253E5D, size: 0x8, addend: 0x0, symName: '__ZNKSt3__110__function6__funcIZN18clip_graph_pixtral5buildEvE3$_0FP11ggml_tensorS5_RK10clip_layerEE6targetERKSt9type_info', symObjAddr: 0xBB4, symBinAddr: 0x31EB0, symSize: 0x60 }
  - { offset: 0x253F2B, size: 0x8, addend: 0x0, symName: '__ZNKSt3__110__function6__funcIZN18clip_graph_pixtral5buildEvE3$_0FP11ggml_tensorS5_RK10clip_layerEE11target_typeEv', symObjAddr: 0xC14, symBinAddr: 0x31F10, symSize: 0xC }
  - { offset: 0x25498B, size: 0x8, addend: 0x0, symName: __GLOBAL__sub_I_pixtral.cpp, symObjAddr: 0xCA4, symBinAddr: 0x31F1C, symSize: 0xA58 }
  - { offset: 0x25AE46, size: 0x8, addend: 0x0, symName: __ZL20PROJECTOR_TYPE_NAMES, symObjAddr: 0x68540, symBinAddr: 0xB4C70, symSize: 0x0 }
  - { offset: 0x26793E, size: 0x8, addend: 0x0, symName: __ZTV18clip_graph_qwen2vl, symObjAddr: 0x1D70, symBinAddr: 0xB0A50, symSize: 0x0 }
  - { offset: 0x2698FA, size: 0x8, addend: 0x0, symName: __ZN18clip_graph_qwen2vl5buildEv, symObjAddr: 0x28, symBinAddr: 0x32974, symSize: 0x8E4 }
  - { offset: 0x26A2C8, size: 0x8, addend: 0x0, symName: __ZN18clip_graph_qwen2vlD1Ev, symObjAddr: 0x90C, symBinAddr: 0x33258, symSize: 0x44 }
  - { offset: 0x26A3DE, size: 0x8, addend: 0x0, symName: __ZN18clip_graph_qwen2vlD0Ev, symObjAddr: 0x950, symBinAddr: 0x3329C, symSize: 0x44 }
  - { offset: 0x26BE6F, size: 0x8, addend: 0x0, symName: __GLOBAL__sub_I_qwen2vl.cpp, symObjAddr: 0x103C, symBinAddr: 0x332E0, symSize: 0xA58 }
  - { offset: 0x272332, size: 0x8, addend: 0x0, symName: __ZL20PROJECTOR_TYPE_NAMES, symObjAddr: 0x68EB8, symBinAddr: 0xB4C88, symSize: 0x0 }
  - { offset: 0x27EE25, size: 0x8, addend: 0x0, symName: __ZTV17clip_graph_qwen3a, symObjAddr: 0x1698, symBinAddr: 0xB0A98, symSize: 0x0 }
  - { offset: 0x280EBB, size: 0x8, addend: 0x0, symName: __ZN17clip_graph_qwen3a5buildEv, symObjAddr: 0x28, symBinAddr: 0x33D38, symSize: 0x35C }
  - { offset: 0x2814E3, size: 0x8, addend: 0x0, symName: __ZN17clip_graph_qwen3aD1Ev, symObjAddr: 0x384, symBinAddr: 0x34094, symSize: 0x44 }
  - { offset: 0x2815F9, size: 0x8, addend: 0x0, symName: __ZN17clip_graph_qwen3aD0Ev, symObjAddr: 0x3C8, symBinAddr: 0x340D8, symSize: 0x44 }
  - { offset: 0x28308A, size: 0x8, addend: 0x0, symName: __GLOBAL__sub_I_qwen3a.cpp, symObjAddr: 0xAD4, symBinAddr: 0x3411C, symSize: 0xA58 }
  - { offset: 0x289544, size: 0x8, addend: 0x0, symName: __ZL20PROJECTOR_TYPE_NAMES, symObjAddr: 0x68570, symBinAddr: 0xB4CA0, symSize: 0x0 }
  - { offset: 0x29603C, size: 0x8, addend: 0x0, symName: __ZTV18clip_graph_qwen3vl, symObjAddr: 0x1DC8, symBinAddr: 0xB0AE0, symSize: 0x0 }
  - { offset: 0x29800E, size: 0x8, addend: 0x0, symName: __ZN18clip_graph_qwen3vl5buildEv, symObjAddr: 0x28, symBinAddr: 0x34B74, symSize: 0x928 }
  - { offset: 0x2989C2, size: 0x8, addend: 0x0, symName: __ZN18clip_graph_qwen3vlD1Ev, symObjAddr: 0x950, symBinAddr: 0x3549C, symSize: 0x44 }
  - { offset: 0x298AD8, size: 0x8, addend: 0x0, symName: __ZN18clip_graph_qwen3vlD0Ev, symObjAddr: 0x994, symBinAddr: 0x354E0, symSize: 0x44 }
  - { offset: 0x29A569, size: 0x8, addend: 0x0, symName: __GLOBAL__sub_I_qwen3vl.cpp, symObjAddr: 0x1080, symBinAddr: 0x35524, symSize: 0xA58 }
  - { offset: 0x2A0A2C, size: 0x8, addend: 0x0, symName: __ZL20PROJECTOR_TYPE_NAMES, symObjAddr: 0x69260, symBinAddr: 0xB4CB8, symSize: 0x0 }
  - { offset: 0x2AD51F, size: 0x8, addend: 0x0, symName: __ZTV17clip_graph_siglip, symObjAddr: 0x1810, symBinAddr: 0xB0B28, symSize: 0x0 }
  - { offset: 0x2AF5B5, size: 0x8, addend: 0x0, symName: __ZN17clip_graph_siglip5buildEv, symObjAddr: 0x28, symBinAddr: 0x35F7C, symSize: 0x420 }
  - { offset: 0x2AFC02, size: 0x8, addend: 0x0, symName: __ZN17clip_graph_siglipD1Ev, symObjAddr: 0x448, symBinAddr: 0x3639C, symSize: 0x44 }
  - { offset: 0x2AFD18, size: 0x8, addend: 0x0, symName: __ZN17clip_graph_siglipD0Ev, symObjAddr: 0x48C, symBinAddr: 0x363E0, symSize: 0x44 }
  - { offset: 0x2B17A9, size: 0x8, addend: 0x0, symName: __GLOBAL__sub_I_siglip.cpp, symObjAddr: 0xBA4, symBinAddr: 0x36424, symSize: 0xA58 }
  - { offset: 0x2B7C5E, size: 0x8, addend: 0x0, symName: __ZL20PROJECTOR_TYPE_NAMES, symObjAddr: 0x6C428, symBinAddr: 0xB4CD0, symSize: 0x0 }
  - { offset: 0x2C4CC9, size: 0x8, addend: 0x0, symName: __ZTV18clip_graph_step3vl, symObjAddr: 0x1A60, symBinAddr: 0xB0B70, symSize: 0x0 }
  - { offset: 0x2C6B10, size: 0x8, addend: 0x0, symName: '__ZTVNSt3__110__function6__funcIZN18clip_graph_step3vl5buildEvE3$_0FP11ggml_tensorS5_RK10clip_layerEEE', symObjAddr: 0x1AA8, symBinAddr: 0xB0BB8, symSize: 0x0 }
  - { offset: 0x2C6B1E, size: 0x8, addend: 0x0, symName: __ZN18clip_graph_step3vl5buildEv, symObjAddr: 0x28, symBinAddr: 0x36E7C, symSize: 0x4E4 }
  - { offset: 0x2C7898, size: 0x8, addend: 0x0, symName: __ZN18clip_graph_step3vlD1Ev, symObjAddr: 0x50C, symBinAddr: 0x37360, symSize: 0x44 }
  - { offset: 0x2C79AE, size: 0x8, addend: 0x0, symName: __ZN18clip_graph_step3vlD0Ev, symObjAddr: 0x550, symBinAddr: 0x373A4, symSize: 0x44 }
  - { offset: 0x2C8A02, size: 0x8, addend: 0x0, symName: '__ZNSt3__110__function6__funcIZN18clip_graph_step3vl5buildEvE3$_0FP11ggml_tensorS5_RK10clip_layerEED1Ev', symObjAddr: 0xBE4, symBinAddr: 0x373E8, symSize: 0x4 }
  - { offset: 0x2C8A31, size: 0x8, addend: 0x0, symName: '__ZNSt3__110__function6__funcIZN18clip_graph_step3vl5buildEvE3$_0FP11ggml_tensorS5_RK10clip_layerEED0Ev', symObjAddr: 0xBE8, symBinAddr: 0x373EC, symSize: 0x4 }
  - { offset: 0x2C8AA6, size: 0x8, addend: 0x0, symName: '__ZNKSt3__110__function6__funcIZN18clip_graph_step3vl5buildEvE3$_0FP11ggml_tensorS5_RK10clip_layerEE7__cloneEv', symObjAddr: 0xBEC, symBinAddr: 0x373F0, symSize: 0x40 }
  - { offset: 0x2C8B17, size: 0x8, addend: 0x0, symName: '__ZNKSt3__110__function6__funcIZN18clip_graph_step3vl5buildEvE3$_0FP11ggml_tensorS5_RK10clip_layerEE7__cloneEPNS0_6__baseIS9_EE', symObjAddr: 0xC2C, symBinAddr: 0x37430, symSize: 0x20 }
  - { offset: 0x2C8B4C, size: 0x8, addend: 0x0, symName: '__ZNKSt3__110__function6__funcIZN18clip_graph_step3vl5buildEvE3$_0FP11ggml_tensorS5_RK10clip_layerEE7__cloneEPNS0_6__baseIS9_EE', symObjAddr: 0xC2C, symBinAddr: 0x37430, symSize: 0x20 }
  - { offset: 0x2C8B70, size: 0x8, addend: 0x0, symName: '__ZNKSt3__110__function6__funcIZN18clip_graph_step3vl5buildEvE3$_0FP11ggml_tensorS5_RK10clip_layerEE7__cloneEPNS0_6__baseIS9_EE', symObjAddr: 0xC2C, symBinAddr: 0x37430, symSize: 0x20 }
  - { offset: 0x2C8B94, size: 0x8, addend: 0x0, symName: '__ZNSt3__110__function6__funcIZN18clip_graph_step3vl5buildEvE3$_0FP11ggml_tensorS5_RK10clip_layerEE7destroyEv', symObjAddr: 0xC4C, symBinAddr: 0x37450, symSize: 0x4 }
  - { offset: 0x2C8BB7, size: 0x8, addend: 0x0, symName: '__ZNSt3__110__function6__funcIZN18clip_graph_step3vl5buildEvE3$_0FP11ggml_tensorS5_RK10clip_layerEE18destroy_deallocateEv', symObjAddr: 0xC50, symBinAddr: 0x37454, symSize: 0x14 }
  - { offset: 0x2C8C67, size: 0x8, addend: 0x0, symName: '__ZNSt3__110__function6__funcIZN18clip_graph_step3vl5buildEvE3$_0FP11ggml_tensorS5_RK10clip_layerEEclEOS5_S8_', symObjAddr: 0xC64, symBinAddr: 0x37468, symSize: 0x2C }
  - { offset: 0x2C8D88, size: 0x8, addend: 0x0, symName: '__ZNKSt3__110__function6__funcIZN18clip_graph_step3vl5buildEvE3$_0FP11ggml_tensorS5_RK10clip_layerEE6targetERKSt9type_info', symObjAddr: 0xC90, symBinAddr: 0x37494, symSize: 0x60 }
  - { offset: 0x2C8E56, size: 0x8, addend: 0x0, symName: '__ZNKSt3__110__function6__funcIZN18clip_graph_step3vl5buildEvE3$_0FP11ggml_tensorS5_RK10clip_layerEE11target_typeEv', symObjAddr: 0xCF0, symBinAddr: 0x374F4, symSize: 0xC }
  - { offset: 0x2C98B6, size: 0x8, addend: 0x0, symName: __GLOBAL__sub_I_step3vl.cpp, symObjAddr: 0xD78, symBinAddr: 0x37500, symSize: 0xA58 }
  - { offset: 0x2CFD71, size: 0x8, addend: 0x0, symName: __ZL20PROJECTOR_TYPE_NAMES, symObjAddr: 0x69DE0, symBinAddr: 0xB4CE8, symSize: 0x0 }
  - { offset: 0x2DC864, size: 0x8, addend: 0x0, symName: __ZTV22clip_graph_whisper_enc, symObjAddr: 0x1C10, symBinAddr: 0xB0C38, symSize: 0x0 }
  - { offset: 0x2DE93E, size: 0x8, addend: 0x0, symName: __ZN22clip_graph_whisper_enc5buildEv, symObjAddr: 0x28, symBinAddr: 0x37F58, symSize: 0x73C }
  - { offset: 0x2DF1B2, size: 0x8, addend: 0x0, symName: __ZN22clip_graph_whisper_encD1Ev, symObjAddr: 0x764, symBinAddr: 0x38694, symSize: 0x44 }
  - { offset: 0x2DF2C8, size: 0x8, addend: 0x0, symName: __ZN22clip_graph_whisper_encD0Ev, symObjAddr: 0x7A8, symBinAddr: 0x386D8, symSize: 0x44 }
  - { offset: 0x2E0D59, size: 0x8, addend: 0x0, symName: __GLOBAL__sub_I_whisper_enc.cpp, symObjAddr: 0xEC0, symBinAddr: 0x3871C, symSize: 0xA58 }
  - { offset: 0x2E720E, size: 0x8, addend: 0x0, symName: __ZL20PROJECTOR_TYPE_NAMES, symObjAddr: 0x69EA8, symBinAddr: 0xB4D00, symSize: 0x0 }
  - { offset: 0x2F3D06, size: 0x8, addend: 0x0, symName: __ZTV16clip_graph_yasa2, symObjAddr: 0x1E10, symBinAddr: 0xB0C80, symSize: 0x0 }
  - { offset: 0x2F5D63, size: 0x8, addend: 0x0, symName: __ZN16clip_graph_yasa219layer_norm_channelsEP11ggml_tensorS1_S1_f, symObjAddr: 0x28, symBinAddr: 0x39174, symSize: 0x18C }
  - { offset: 0x2F6138, size: 0x8, addend: 0x0, symName: __ZN16clip_graph_yasa212convnext_grnEP11ggml_tensorS1_S1_, symObjAddr: 0x1B4, symBinAddr: 0x39300, symSize: 0x1AC }
  - { offset: 0x2F64CC, size: 0x8, addend: 0x0, symName: __ZN16clip_graph_yasa25buildEv, symObjAddr: 0x360, symBinAddr: 0x394AC, symSize: 0x6C8 }
  - { offset: 0x2F6D26, size: 0x8, addend: 0x0, symName: __ZN16clip_graph_yasa2D1Ev, symObjAddr: 0xA28, symBinAddr: 0x39B74, symSize: 0x44 }
  - { offset: 0x2F6F89, size: 0x8, addend: 0x0, symName: __ZN16clip_graph_yasa2D1Ev, symObjAddr: 0xA28, symBinAddr: 0x39B74, symSize: 0x44 }
  - { offset: 0x2F709F, size: 0x8, addend: 0x0, symName: __ZN16clip_graph_yasa2D0Ev, symObjAddr: 0xA6C, symBinAddr: 0x39BB8, symSize: 0x44 }
  - { offset: 0x2F8B30, size: 0x8, addend: 0x0, symName: __GLOBAL__sub_I_yasa2.cpp, symObjAddr: 0x1158, symBinAddr: 0x39BFC, symSize: 0xA58 }
  - { offset: 0x2FEFEA, size: 0x8, addend: 0x0, symName: __ZL20PROJECTOR_TYPE_NAMES, symObjAddr: 0x69A60, symBinAddr: 0xB4D18, symSize: 0x0 }
  - { offset: 0x30BB49, size: 0x8, addend: 0x0, symName: __ZTV18clip_graph_youtuvl, symObjAddr: 0x1CE0, symBinAddr: 0xB0CC8, symSize: 0x0 }
  - { offset: 0x30DC84, size: 0x8, addend: 0x0, symName: __ZN18clip_graph_youtuvl5buildEv, symObjAddr: 0x28, symBinAddr: 0x3A654, symSize: 0x8D8 }
  - { offset: 0x30E7FF, size: 0x8, addend: 0x0, symName: __ZN18clip_graph_youtuvlD1Ev, symObjAddr: 0x900, symBinAddr: 0x3AF2C, symSize: 0x44 }
  - { offset: 0x30E915, size: 0x8, addend: 0x0, symName: __ZN18clip_graph_youtuvlD0Ev, symObjAddr: 0x944, symBinAddr: 0x3AF70, symSize: 0x44 }
  - { offset: 0x3103A6, size: 0x8, addend: 0x0, symName: __GLOBAL__sub_I_youtuvl.cpp, symObjAddr: 0x1030, symBinAddr: 0x3AFB4, symSize: 0xA58 }
  - { offset: 0x316869, size: 0x8, addend: 0x0, symName: __ZL20PROJECTOR_TYPE_NAMES, symObjAddr: 0xB3F18, symBinAddr: 0xB4D30, symSize: 0x0 }
  - { offset: 0x325D32, size: 0x8, addend: 0x0, symName: __ZNSt3__114__thread_proxyB9nqe210106INS_5tupleIJNS_10unique_ptrINS_15__thread_structENS_14default_deleteIS3_EEEEPFviPKfRKNS_6vectorIfNS_9allocatorIfEEEEiiiiRK13filter_paramsRK16mtmd_audio_cacheR14mtmd_audio_melEiS8_NS_17reference_wrapperISD_EEiiiiNSP_ISG_EENSP_ISJ_EENSP_ISL_EEEEEEEPvSV_, symObjAddr: 0x54B0, symBinAddr: 0x40DC0, symSize: 0x94 }
  - { offset: 0x327D86, size: 0x8, addend: 0x0, symName: __ZTV31mtmd_audio_preprocessor_whisper, symObjAddr: 0x7E48, symBinAddr: 0xB0D10, symSize: 0x0 }
  - { offset: 0x328731, size: 0x8, addend: 0x0, symName: __ZTV33mtmd_audio_preprocessor_conformer, symObjAddr: 0x7EA0, symBinAddr: 0xB0D68, symSize: 0x0 }
  - { offset: 0x3287ED, size: 0x8, addend: 0x0, symName: __ZTV31mtmd_audio_preprocessor_gemma4a, symObjAddr: 0x7EE8, symBinAddr: 0xB0DB0, symSize: 0x0 }
  - { offset: 0x3288AE, size: 0x8, addend: 0x0, symName: '__ZTVNSt3__110__function6__funcIZN16mtmd_audio_cache26fill_mel_filterbank_matrixEiiiffbfbE3$_0FddEEE', symObjAddr: 0x7F30, symBinAddr: 0xB0DF8, symSize: 0x0 }
  - { offset: 0x3288BC, size: 0x8, addend: 0x0, symName: __ZN16mtmd_audio_cache26fill_mel_filterbank_matrixEiiiffbfb, symObjAddr: 0x378, symBinAddr: 0x3BD5C, symSize: 0x6C8 }
  - { offset: 0x329EDC, size: 0x8, addend: 0x0, symName: '__ZTVNSt3__110__function6__funcIZN16mtmd_audio_cache26fill_mel_filterbank_matrixEiiiffbfbE3$_1FddEEE', symObjAddr: 0x7FC0, symBinAddr: 0xB0E88, symSize: 0x0 }
  - { offset: 0x329F19, size: 0x8, addend: 0x0, symName: '__ZTVNSt3__110__function6__funcIZN16mtmd_audio_cache26fill_mel_filterbank_matrixEiiiffbfbE3$_2FddEEE', symObjAddr: 0x8040, symBinAddr: 0xB0F08, symSize: 0x0 }
  - { offset: 0x329F56, size: 0x8, addend: 0x0, symName: '__ZTVNSt3__110__function6__funcIZN16mtmd_audio_cache26fill_mel_filterbank_matrixEiiiffbfbE3$_3FddEEE', symObjAddr: 0x80C0, symBinAddr: 0xB0F88, symSize: 0x0 }
  - { offset: 0x32AABA, size: 0x8, addend: 0x0, symName: __ZN16mtmd_audio_cache18fill_sin_cos_tableEj, symObjAddr: 0x28, symBinAddr: 0x3BA0C, symSize: 0x1AC }
  - { offset: 0x32AEF8, size: 0x8, addend: 0x0, symName: '__ZNSt3__110__function6__funcIZN16mtmd_audio_cache26fill_mel_filterbank_matrixEiiiffbfbE3$_0FddEED1Ev', symObjAddr: 0x62A0, symBinAddr: 0x414E0, symSize: 0x4 }
  - { offset: 0x32AF03, size: 0x8, addend: 0x0, symName: __ZN16mtmd_audio_cache16fill_hann_windowEjb, symObjAddr: 0x1D4, symBinAddr: 0x3BBB8, symSize: 0x1A4 }
  - { offset: 0x32BBBA, size: 0x8, addend: 0x0, symName: __ZNSt3__110__function12__value_funcIFddEE4swapB9nqe210106ERS3_, symObjAddr: 0x63A0, symBinAddr: 0x415E0, symSize: 0x198 }
  - { offset: 0x32BDA1, size: 0x8, addend: 0x0, symName: __ZN31mtmd_audio_preprocessor_whisper10initializeEv, symObjAddr: 0xA40, symBinAddr: 0x3C424, symSize: 0x350 }
  - { offset: 0x32C94C, size: 0x8, addend: 0x0, symName: __ZN31mtmd_audio_preprocessor_whisper10preprocessEPKfmRNSt3__16vectorI14mtmd_audio_melNS2_9allocatorIS4_EEEE, symObjAddr: 0xD90, symBinAddr: 0x3C774, symSize: 0x454 }
  - { offset: 0x32DCDA, size: 0x8, addend: 0x0, symName: __ZNSt3__16vectorIfNS_9allocatorIfEEE8__appendEmRKf, symObjAddr: 0x692C, symBinAddr: 0x41B20, symSize: 0x24C }
  - { offset: 0x32E10E, size: 0x8, addend: 0x0, symName: __ZNSt3__16vectorI14mtmd_audio_melNS_9allocatorIS1_EEE24__emplace_back_slow_pathIJS1_EEEPS1_DpOT_, symObjAddr: 0x6B78, symBinAddr: 0x41D6C, symSize: 0x170 }
  - { offset: 0x32E119, size: 0x8, addend: 0x0, symName: __ZL19log_mel_spectrogramPKfiiRK13filter_paramsRK16mtmd_audio_cacheR14mtmd_audio_mel, symObjAddr: 0x11E4, symBinAddr: 0x3CBC8, symSize: 0xFF4 }
  - { offset: 0x32FB63, size: 0x8, addend: 0x0, symName: __ZNSt3__16vectorI14mtmd_audio_melNS_9allocatorIS1_EEE24__emplace_back_slow_pathIJS1_EEEPS1_DpOT_, symObjAddr: 0x6B78, symBinAddr: 0x41D6C, symSize: 0x170 }
  - { offset: 0x3301CC, size: 0x8, addend: 0x0, symName: __ZNSt3__16vectorI14mtmd_audio_melNS_9allocatorIS1_EEE20__throw_length_errorB9nqe210106Ev, symObjAddr: 0x6CE8, symBinAddr: 0x41EDC, symSize: 0x14 }
  - { offset: 0x3301EC, size: 0x8, addend: 0x0, symName: __ZNSt3__128__exception_guard_exceptionsINS_6vectorINS_6threadENS_9allocatorIS2_EEE16__destroy_vectorEED1B9nqe210106Ev, symObjAddr: 0x4C44, symBinAddr: 0x40554, symSize: 0x70 }
  - { offset: 0x330A66, size: 0x8, addend: 0x0, symName: __ZL17clip_log_internal14ggml_log_levelPKcz, symObjAddr: 0x3FF0, symBinAddr: 0x3F914, symSize: 0xF0 }
  - { offset: 0x330BC8, size: 0x8, addend: 0x0, symName: __ZNSt3__16vectorINS_6threadENS_9allocatorIS1_EEE20__throw_length_errorB9nqe210106Ev, symObjAddr: 0x4CB4, symBinAddr: 0x405C4, symSize: 0x14 }
  - { offset: 0x330BE0, size: 0x8, addend: 0x0, symName: __ZL8fft_implILb0ELb1EEvRK16mtmd_audio_cachePfiS3_, symObjAddr: 0x4CC8, symBinAddr: 0x405D8, symSize: 0x6A8 }
  - { offset: 0x330BEB, size: 0x8, addend: 0x0, symName: __ZNSt3__16threadC2B9nqe210106IRFviPKfRKNS_6vectorIfNS_9allocatorIfEEEEiiiiRK13filter_paramsRK16mtmd_audio_cacheR14mtmd_audio_melEJiRS3_NS_17reference_wrapperIS8_EERiRKiSP_SP_NSL_ISB_EENSL_ISE_EENSL_ISG_EEELi0EEEOT_DpOT0_, symObjAddr: 0x5370, symBinAddr: 0x40C80, symSize: 0x140 }
  - { offset: 0x3311DA, size: 0x8, addend: 0x0, symName: __ZL33log_mel_spectrogram_worker_threadiPKfRKNSt3__16vectorIfNS1_9allocatorIfEEEEiiiiRK13filter_paramsRK16mtmd_audio_cacheR14mtmd_audio_mel, symObjAddr: 0x40E0, symBinAddr: 0x3FA04, symSize: 0xAF8 }
  - { offset: 0x331B34, size: 0x8, addend: 0x0, symName: __ZNSt3__128__exception_guard_exceptionsINS_6vectorINS_6threadENS_9allocatorIS2_EEE16__destroy_vectorEED1B9nqe210106Ev, symObjAddr: 0x4C44, symBinAddr: 0x40554, symSize: 0x70 }
  - { offset: 0x331B65, size: 0x8, addend: 0x0, symName: __ZNSt3__128__exception_guard_exceptionsINS_6vectorINS_6threadENS_9allocatorIS2_EEE16__destroy_vectorEED1B9nqe210106Ev, symObjAddr: 0x4C44, symBinAddr: 0x40554, symSize: 0x70 }
  - { offset: 0x331CC2, size: 0x8, addend: 0x0, symName: __ZNSt3__16vectorINS_6threadENS_9allocatorIS1_EEED1B9nqe210106Ev, symObjAddr: 0x4BD8, symBinAddr: 0x404FC, symSize: 0x58 }
  - { offset: 0x331E32, size: 0x8, addend: 0x0, symName: __ZN33mtmd_audio_preprocessor_conformer10initializeEv, symObjAddr: 0x21D8, symBinAddr: 0x3DBBC, symSize: 0x350 }
  - { offset: 0x33210A, size: 0x8, addend: 0x0, symName: __ZN33mtmd_audio_preprocessor_conformer10preprocessEPKfmRNSt3__16vectorI14mtmd_audio_melNS2_9allocatorIS4_EEEE, symObjAddr: 0x2528, symBinAddr: 0x3DF0C, symSize: 0x1E8 }
  - { offset: 0x3326A4, size: 0x8, addend: 0x0, symName: __ZN31mtmd_audio_preprocessor_gemma4a10initializeEv, symObjAddr: 0x2710, symBinAddr: 0x3E0F4, symSize: 0x338 }
  - { offset: 0x3328D3, size: 0x8, addend: 0x0, symName: __ZNSt3__16vectorIfNS_9allocatorIfEEE6assignEmRKf, symObjAddr: 0x2A48, symBinAddr: 0x3E42C, symSize: 0x2BC }
  - { offset: 0x332D8B, size: 0x8, addend: 0x0, symName: __ZN31mtmd_audio_preprocessor_gemma4a10preprocessEPKfmRNSt3__16vectorI14mtmd_audio_melNS2_9allocatorIS4_EEEE, symObjAddr: 0x2D04, symBinAddr: 0x3E6E8, symSize: 0x324 }
  - { offset: 0x332DE5, size: 0x8, addend: 0x0, symName: __ZN31mtmd_audio_preprocessor_gemma4a10preprocessEPKfmRNSt3__16vectorI14mtmd_audio_melNS2_9allocatorIS4_EEEE, symObjAddr: 0x2D04, symBinAddr: 0x3E6E8, symSize: 0x324 }
  - { offset: 0x333A72, size: 0x8, addend: 0x0, symName: __ZN26mtmd_audio_streaming_istftC2Eii, symObjAddr: 0x3028, symBinAddr: 0x3EA0C, symSize: 0x59C }
  - { offset: 0x33473E, size: 0x8, addend: 0x0, symName: __ZN16mtmd_audio_cacheD1Ev, symObjAddr: 0x35C4, symBinAddr: 0x3EFA8, symSize: 0x60 }
  - { offset: 0x334C55, size: 0x8, addend: 0x0, symName: __ZN26mtmd_audio_streaming_istftC1Eii, symObjAddr: 0x3624, symBinAddr: 0x3F008, symSize: 0x4 }
  - { offset: 0x334CA2, size: 0x8, addend: 0x0, symName: __ZN26mtmd_audio_streaming_istftC1Eii, symObjAddr: 0x3624, symBinAddr: 0x3F008, symSize: 0x4 }
  - { offset: 0x334CC6, size: 0x8, addend: 0x0, symName: __ZN26mtmd_audio_streaming_istft5resetEv, symObjAddr: 0x3628, symBinAddr: 0x3F00C, symSize: 0x5C }
  - { offset: 0x335069, size: 0x8, addend: 0x0, symName: __ZN26mtmd_audio_streaming_istft13process_frameEPKf, symObjAddr: 0x3684, symBinAddr: 0x3F068, symSize: 0x3F4 }
  - { offset: 0x335A6F, size: 0x8, addend: 0x0, symName: __ZL8fft_implILb1ELb0EEvRK16mtmd_audio_cachePfiS3_, symObjAddr: 0x55C8, symBinAddr: 0x40ED8, symSize: 0x608 }
  - { offset: 0x335E61, size: 0x8, addend: 0x0, symName: __ZN26mtmd_audio_streaming_istft5flushEv, symObjAddr: 0x3A78, symBinAddr: 0x3F45C, symSize: 0x230 }
  - { offset: 0x3368BD, size: 0x8, addend: 0x0, symName: __ZN31mtmd_audio_preprocessor_whisperD1Ev, symObjAddr: 0x3CA8, symBinAddr: 0x3F68C, symSize: 0x6C }
  - { offset: 0x336DD2, size: 0x8, addend: 0x0, symName: __ZN31mtmd_audio_preprocessor_whisperD0Ev, symObjAddr: 0x3D14, symBinAddr: 0x3F6F8, symSize: 0x6C }
  - { offset: 0x337313, size: 0x8, addend: 0x0, symName: __ZN33mtmd_audio_preprocessor_conformerD1Ev, symObjAddr: 0x3D80, symBinAddr: 0x3F764, symSize: 0x6C }
  - { offset: 0x337828, size: 0x8, addend: 0x0, symName: __ZN33mtmd_audio_preprocessor_conformerD0Ev, symObjAddr: 0x3DEC, symBinAddr: 0x3F7D0, symSize: 0x6C }
  - { offset: 0x337D69, size: 0x8, addend: 0x0, symName: __ZN31mtmd_audio_preprocessor_gemma4aD1Ev, symObjAddr: 0x3E58, symBinAddr: 0x3F83C, symSize: 0x6C }
  - { offset: 0x33827E, size: 0x8, addend: 0x0, symName: __ZN31mtmd_audio_preprocessor_gemma4aD0Ev, symObjAddr: 0x3EC4, symBinAddr: 0x3F8A8, symSize: 0x6C }
  - { offset: 0x33892F, size: 0x8, addend: 0x0, symName: __ZL8fft_implILb0ELb1EEvRK16mtmd_audio_cachePfiS3_, symObjAddr: 0x4CC8, symBinAddr: 0x405D8, symSize: 0x6A8 }
  - { offset: 0x338C08, size: 0x8, addend: 0x0, symName: __ZNSt3__16threadC2B9nqe210106IRFviPKfRKNS_6vectorIfNS_9allocatorIfEEEEiiiiRK13filter_paramsRK16mtmd_audio_cacheR14mtmd_audio_melEJiRS3_NS_17reference_wrapperIS8_EERiRKiSP_SP_NSL_ISB_EENSL_ISE_EENSL_ISG_EEELi0EEEOT_DpOT0_, symObjAddr: 0x5370, symBinAddr: 0x40C80, symSize: 0x140 }
  - { offset: 0x33964B, size: 0x8, addend: 0x0, symName: __ZNSt3__110unique_ptrINS_15__thread_structENS_14default_deleteIS1_EEED1B9nqe210106Ev, symObjAddr: 0x558C, symBinAddr: 0x40E9C, symSize: 0x3C }
  - { offset: 0x33972B, size: 0x8, addend: 0x0, symName: __ZNSt3__110unique_ptrINS_5tupleIJNS0_INS_15__thread_structENS_14default_deleteIS2_EEEEPFviPKfRKNS_6vectorIfNS_9allocatorIfEEEEiiiiRK13filter_paramsRK16mtmd_audio_cacheR14mtmd_audio_melEiS7_NS_17reference_wrapperISC_EEiiiiNSO_ISF_EENSO_ISI_EENSO_ISK_EEEEENS3_IST_EEED1B9nqe210106Ev, symObjAddr: 0x5544, symBinAddr: 0x40E54, symSize: 0x48 }
  - { offset: 0x33AB8A, size: 0x8, addend: 0x0, symName: '__ZNSt3__110__function6__funcIZN16mtmd_audio_cache26fill_mel_filterbank_matrixEiiiffbfbE3$_0FddEED1Ev', symObjAddr: 0x62A0, symBinAddr: 0x414E0, symSize: 0x4 }
  - { offset: 0x33ABB9, size: 0x8, addend: 0x0, symName: '__ZNSt3__110__function6__funcIZN16mtmd_audio_cache26fill_mel_filterbank_matrixEiiiffbfbE3$_0FddEED0Ev', symObjAddr: 0x62A4, symBinAddr: 0x414E4, symSize: 0x4 }
  - { offset: 0x33AC2E, size: 0x8, addend: 0x0, symName: '__ZNKSt3__110__function6__funcIZN16mtmd_audio_cache26fill_mel_filterbank_matrixEiiiffbfbE3$_0FddEE7__cloneEv', symObjAddr: 0x62A8, symBinAddr: 0x414E8, symSize: 0x24 }
  - { offset: 0x33AC89, size: 0x8, addend: 0x0, symName: '__ZNKSt3__110__function6__funcIZN16mtmd_audio_cache26fill_mel_filterbank_matrixEiiiffbfbE3$_0FddEE7__cloneEPNS0_6__baseIS4_EE', symObjAddr: 0x62CC, symBinAddr: 0x4150C, symSize: 0x10 }
  - { offset: 0x33ACBC, size: 0x8, addend: 0x0, symName: '__ZNKSt3__110__function6__funcIZN16mtmd_audio_cache26fill_mel_filterbank_matrixEiiiffbfbE3$_0FddEE7__cloneEPNS0_6__baseIS4_EE', symObjAddr: 0x62CC, symBinAddr: 0x4150C, symSize: 0x10 }
  - { offset: 0x33ACD7, size: 0x8, addend: 0x0, symName: '__ZNKSt3__110__function6__funcIZN16mtmd_audio_cache26fill_mel_filterbank_matrixEiiiffbfbE3$_0FddEE7__cloneEPNS0_6__baseIS4_EE', symObjAddr: 0x62CC, symBinAddr: 0x4150C, symSize: 0x10 }
  - { offset: 0x33ACF2, size: 0x8, addend: 0x0, symName: '__ZNSt3__110__function6__funcIZN16mtmd_audio_cache26fill_mel_filterbank_matrixEiiiffbfbE3$_0FddEE7destroyEv', symObjAddr: 0x62DC, symBinAddr: 0x4151C, symSize: 0x4 }
  - { offset: 0x33AD15, size: 0x8, addend: 0x0, symName: '__ZNSt3__110__function6__funcIZN16mtmd_audio_cache26fill_mel_filterbank_matrixEiiiffbfbE3$_0FddEE18destroy_deallocateEv', symObjAddr: 0x62E0, symBinAddr: 0x41520, symSize: 0x14 }
  - { offset: 0x33ADA7, size: 0x8, addend: 0x0, symName: '__ZNSt3__110__function6__funcIZN16mtmd_audio_cache26fill_mel_filterbank_matrixEiiiffbfbE3$_0FddEEclEOd', symObjAddr: 0x62F4, symBinAddr: 0x41534, symSize: 0x40 }
  - { offset: 0x33AE94, size: 0x8, addend: 0x0, symName: '__ZNKSt3__110__function6__funcIZN16mtmd_audio_cache26fill_mel_filterbank_matrixEiiiffbfbE3$_0FddEE6targetERKSt9type_info', symObjAddr: 0x6334, symBinAddr: 0x41574, symSize: 0x60 }
  - { offset: 0x33AF62, size: 0x8, addend: 0x0, symName: '__ZNKSt3__110__function6__funcIZN16mtmd_audio_cache26fill_mel_filterbank_matrixEiiiffbfbE3$_0FddEE11target_typeEv', symObjAddr: 0x6394, symBinAddr: 0x415D4, symSize: 0xC }
  - { offset: 0x33AF8B, size: 0x8, addend: 0x0, symName: '__ZNSt3__110__function6__funcIZN16mtmd_audio_cache26fill_mel_filterbank_matrixEiiiffbfbE3$_1FddEED1Ev', symObjAddr: 0x6538, symBinAddr: 0x41778, symSize: 0x4 }
  - { offset: 0x33AFBA, size: 0x8, addend: 0x0, symName: '__ZNSt3__110__function6__funcIZN16mtmd_audio_cache26fill_mel_filterbank_matrixEiiiffbfbE3$_1FddEED0Ev', symObjAddr: 0x653C, symBinAddr: 0x4177C, symSize: 0x4 }
  - { offset: 0x33B02F, size: 0x8, addend: 0x0, symName: '__ZNKSt3__110__function6__funcIZN16mtmd_audio_cache26fill_mel_filterbank_matrixEiiiffbfbE3$_1FddEE7__cloneEv', symObjAddr: 0x6540, symBinAddr: 0x41780, symSize: 0x24 }
  - { offset: 0x33B08A, size: 0x8, addend: 0x0, symName: '__ZNKSt3__110__function6__funcIZN16mtmd_audio_cache26fill_mel_filterbank_matrixEiiiffbfbE3$_1FddEE7__cloneEPNS0_6__baseIS4_EE', symObjAddr: 0x6564, symBinAddr: 0x417A4, symSize: 0x10 }
  - { offset: 0x33B0BD, size: 0x8, addend: 0x0, symName: '__ZNKSt3__110__function6__funcIZN16mtmd_audio_cache26fill_mel_filterbank_matrixEiiiffbfbE3$_1FddEE7__cloneEPNS0_6__baseIS4_EE', symObjAddr: 0x6564, symBinAddr: 0x417A4, symSize: 0x10 }
  - { offset: 0x33B0D8, size: 0x8, addend: 0x0, symName: '__ZNKSt3__110__function6__funcIZN16mtmd_audio_cache26fill_mel_filterbank_matrixEiiiffbfbE3$_1FddEE7__cloneEPNS0_6__baseIS4_EE', symObjAddr: 0x6564, symBinAddr: 0x417A4, symSize: 0x10 }
  - { offset: 0x33B0F3, size: 0x8, addend: 0x0, symName: '__ZNSt3__110__function6__funcIZN16mtmd_audio_cache26fill_mel_filterbank_matrixEiiiffbfbE3$_1FddEE7destroyEv', symObjAddr: 0x6574, symBinAddr: 0x417B4, symSize: 0x4 }
  - { offset: 0x33B116, size: 0x8, addend: 0x0, symName: '__ZNSt3__110__function6__funcIZN16mtmd_audio_cache26fill_mel_filterbank_matrixEiiiffbfbE3$_1FddEE18destroy_deallocateEv', symObjAddr: 0x6578, symBinAddr: 0x417B8, symSize: 0x14 }
  - { offset: 0x33B1A8, size: 0x8, addend: 0x0, symName: '__ZNSt3__110__function6__funcIZN16mtmd_audio_cache26fill_mel_filterbank_matrixEiiiffbfbE3$_1FddEEclEOd', symObjAddr: 0x658C, symBinAddr: 0x417CC, symSize: 0x40 }
  - { offset: 0x33B23C, size: 0x8, addend: 0x0, symName: '__ZNKSt3__110__function6__funcIZN16mtmd_audio_cache26fill_mel_filterbank_matrixEiiiffbfbE3$_1FddEE6targetERKSt9type_info', symObjAddr: 0x65CC, symBinAddr: 0x4180C, symSize: 0x60 }
  - { offset: 0x33B2F3, size: 0x8, addend: 0x0, symName: '__ZNKSt3__110__function6__funcIZN16mtmd_audio_cache26fill_mel_filterbank_matrixEiiiffbfbE3$_1FddEE11target_typeEv', symObjAddr: 0x662C, symBinAddr: 0x4186C, symSize: 0xC }
  - { offset: 0x33B316, size: 0x8, addend: 0x0, symName: '__ZNSt3__110__function6__funcIZN16mtmd_audio_cache26fill_mel_filterbank_matrixEiiiffbfbE3$_2FddEED1Ev', symObjAddr: 0x6638, symBinAddr: 0x41878, symSize: 0x4 }
  - { offset: 0x33B345, size: 0x8, addend: 0x0, symName: '__ZNSt3__110__function6__funcIZN16mtmd_audio_cache26fill_mel_filterbank_matrixEiiiffbfbE3$_2FddEED0Ev', symObjAddr: 0x663C, symBinAddr: 0x4187C, symSize: 0x4 }
  - { offset: 0x33B3BA, size: 0x8, addend: 0x0, symName: '__ZNKSt3__110__function6__funcIZN16mtmd_audio_cache26fill_mel_filterbank_matrixEiiiffbfbE3$_2FddEE7__cloneEv', symObjAddr: 0x6640, symBinAddr: 0x41880, symSize: 0x40 }
  - { offset: 0x33B42B, size: 0x8, addend: 0x0, symName: '__ZNKSt3__110__function6__funcIZN16mtmd_audio_cache26fill_mel_filterbank_matrixEiiiffbfbE3$_2FddEE7__cloneEPNS0_6__baseIS4_EE', symObjAddr: 0x6680, symBinAddr: 0x418C0, symSize: 0x20 }
  - { offset: 0x33B460, size: 0x8, addend: 0x0, symName: '__ZNKSt3__110__function6__funcIZN16mtmd_audio_cache26fill_mel_filterbank_matrixEiiiffbfbE3$_2FddEE7__cloneEPNS0_6__baseIS4_EE', symObjAddr: 0x6680, symBinAddr: 0x418C0, symSize: 0x20 }
  - { offset: 0x33B484, size: 0x8, addend: 0x0, symName: '__ZNKSt3__110__function6__funcIZN16mtmd_audio_cache26fill_mel_filterbank_matrixEiiiffbfbE3$_2FddEE7__cloneEPNS0_6__baseIS4_EE', symObjAddr: 0x6680, symBinAddr: 0x418C0, symSize: 0x20 }
  - { offset: 0x33B4A8, size: 0x8, addend: 0x0, symName: '__ZNSt3__110__function6__funcIZN16mtmd_audio_cache26fill_mel_filterbank_matrixEiiiffbfbE3$_2FddEE7destroyEv', symObjAddr: 0x66A0, symBinAddr: 0x418E0, symSize: 0x4 }
  - { offset: 0x33B4CB, size: 0x8, addend: 0x0, symName: '__ZNSt3__110__function6__funcIZN16mtmd_audio_cache26fill_mel_filterbank_matrixEiiiffbfbE3$_2FddEE18destroy_deallocateEv', symObjAddr: 0x66A4, symBinAddr: 0x418E4, symSize: 0x14 }
  - { offset: 0x33B55D, size: 0x8, addend: 0x0, symName: '__ZNSt3__110__function6__funcIZN16mtmd_audio_cache26fill_mel_filterbank_matrixEiiiffbfbE3$_2FddEEclEOd', symObjAddr: 0x66B8, symBinAddr: 0x418F8, symSize: 0x70 }
  - { offset: 0x33B5D7, size: 0x8, addend: 0x0, symName: '__ZNKSt3__110__function6__funcIZN16mtmd_audio_cache26fill_mel_filterbank_matrixEiiiffbfbE3$_2FddEE6targetERKSt9type_info', symObjAddr: 0x6728, symBinAddr: 0x41968, symSize: 0x60 }
  - { offset: 0x33B68E, size: 0x8, addend: 0x0, symName: '__ZNKSt3__110__function6__funcIZN16mtmd_audio_cache26fill_mel_filterbank_matrixEiiiffbfbE3$_2FddEE11target_typeEv', symObjAddr: 0x6788, symBinAddr: 0x419C8, symSize: 0xC }
  - { offset: 0x33B6B1, size: 0x8, addend: 0x0, symName: '__ZNSt3__110__function6__funcIZN16mtmd_audio_cache26fill_mel_filterbank_matrixEiiiffbfbE3$_3FddEED1Ev', symObjAddr: 0x6794, symBinAddr: 0x419D4, symSize: 0x4 }
  - { offset: 0x33B6E0, size: 0x8, addend: 0x0, symName: '__ZNSt3__110__function6__funcIZN16mtmd_audio_cache26fill_mel_filterbank_matrixEiiiffbfbE3$_3FddEED0Ev', symObjAddr: 0x6798, symBinAddr: 0x419D8, symSize: 0x4 }
  - { offset: 0x33B755, size: 0x8, addend: 0x0, symName: '__ZNKSt3__110__function6__funcIZN16mtmd_audio_cache26fill_mel_filterbank_matrixEiiiffbfbE3$_3FddEE7__cloneEv', symObjAddr: 0x679C, symBinAddr: 0x419DC, symSize: 0x40 }
  - { offset: 0x33B7C6, size: 0x8, addend: 0x0, symName: '__ZNKSt3__110__function6__funcIZN16mtmd_audio_cache26fill_mel_filterbank_matrixEiiiffbfbE3$_3FddEE7__cloneEPNS0_6__baseIS4_EE', symObjAddr: 0x67DC, symBinAddr: 0x41A1C, symSize: 0x20 }
  - { offset: 0x33B7FB, size: 0x8, addend: 0x0, symName: '__ZNKSt3__110__function6__funcIZN16mtmd_audio_cache26fill_mel_filterbank_matrixEiiiffbfbE3$_3FddEE7__cloneEPNS0_6__baseIS4_EE', symObjAddr: 0x67DC, symBinAddr: 0x41A1C, symSize: 0x20 }
  - { offset: 0x33B81F, size: 0x8, addend: 0x0, symName: '__ZNKSt3__110__function6__funcIZN16mtmd_audio_cache26fill_mel_filterbank_matrixEiiiffbfbE3$_3FddEE7__cloneEPNS0_6__baseIS4_EE', symObjAddr: 0x67DC, symBinAddr: 0x41A1C, symSize: 0x20 }
  - { offset: 0x33B843, size: 0x8, addend: 0x0, symName: '__ZNSt3__110__function6__funcIZN16mtmd_audio_cache26fill_mel_filterbank_matrixEiiiffbfbE3$_3FddEE7destroyEv', symObjAddr: 0x67FC, symBinAddr: 0x41A3C, symSize: 0x4 }
  - { offset: 0x33B866, size: 0x8, addend: 0x0, symName: '__ZNSt3__110__function6__funcIZN16mtmd_audio_cache26fill_mel_filterbank_matrixEiiiffbfbE3$_3FddEE18destroy_deallocateEv', symObjAddr: 0x6800, symBinAddr: 0x41A40, symSize: 0x14 }
  - { offset: 0x33B8F8, size: 0x8, addend: 0x0, symName: '__ZNSt3__110__function6__funcIZN16mtmd_audio_cache26fill_mel_filterbank_matrixEiiiffbfbE3$_3FddEEclEOd', symObjAddr: 0x6814, symBinAddr: 0x41A54, symSize: 0x60 }
  - { offset: 0x33B972, size: 0x8, addend: 0x0, symName: '__ZNKSt3__110__function6__funcIZN16mtmd_audio_cache26fill_mel_filterbank_matrixEiiiffbfbE3$_3FddEE6targetERKSt9type_info', symObjAddr: 0x6874, symBinAddr: 0x41AB4, symSize: 0x60 }
  - { offset: 0x33BA29, size: 0x8, addend: 0x0, symName: '__ZNKSt3__110__function6__funcIZN16mtmd_audio_cache26fill_mel_filterbank_matrixEiiiffbfbE3$_3FddEE11target_typeEv', symObjAddr: 0x68D4, symBinAddr: 0x41B14, symSize: 0xC }
  - { offset: 0x33BD00, size: 0x8, addend: 0x0, symName: __ZNSt3__16vectorI14mtmd_audio_melNS_9allocatorIS1_EEE20__throw_length_errorB9nqe210106Ev, symObjAddr: 0x6CE8, symBinAddr: 0x41EDC, symSize: 0x14 }
  - { offset: 0x33C76E, size: 0x8, addend: 0x0, symName: __GLOBAL__sub_I_mtmd_audio.cpp, symObjAddr: 0x7054, symBinAddr: 0x41EF0, symSize: 0xA58 }
  - { offset: 0x342BE2, size: 0x8, addend: 0x0, symName: _stbi_failure_reason, symObjAddr: 0x0, symBinAddr: 0x42948, symSize: 0x24 }
  - { offset: 0x342BFD, size: 0x8, addend: 0x0, symName: _ma_atomic_global_lock, symObjAddr: 0x1D620C, symBinAddr: 0xB4D88, symSize: 0x0 }
  - { offset: 0x342C51, size: 0x8, addend: 0x0, symName: _g_logger, symObjAddr: 0x4DD40, symBinAddr: 0xB4790, symSize: 0x0 }
  - { offset: 0x342D27, size: 0x8, addend: 0x0, symName: __ZL22stbi__g_failure_reason, symObjAddr: 0x4D29C, symBinAddr: 0xB49E0, symSize: 0x0 }
  - { offset: 0x342D42, size: 0x8, addend: 0x0, symName: __ZL36stbi__vertically_flip_on_load_global, symObjAddr: 0x1D6230, symBinAddr: 0xB4D48, symSize: 0x0 }
  - { offset: 0x342D63, size: 0x8, addend: 0x0, symName: __ZL35stbi__vertically_flip_on_load_local, symObjAddr: 0x4D2B4, symBinAddr: 0xB49F8, symSize: 0x0 }
  - { offset: 0x342D7E, size: 0x8, addend: 0x0, symName: __ZL33stbi__vertically_flip_on_load_set, symObjAddr: 0x4D2CC, symBinAddr: 0xB4A10, symSize: 0x0 }
  - { offset: 0x342D99, size: 0x8, addend: 0x0, symName: __ZL21stbi__stdio_callbacks, symObjAddr: 0x4DF88, symBinAddr: 0xB1008, symSize: 0x0 }
  - { offset: 0x342E3B, size: 0x8, addend: 0x0, symName: __ZL20stbi__parse_png_fileP9stbi__pngii, symObjAddr: 0xE048, symBinAddr: 0x50990, symSize: 0x16A4 }
  - { offset: 0x342E67, size: 0x8, addend: 0x0, symName: __ZZL20stbi__parse_png_fileP9stbi__pngiiE13invalid_chunk, symObjAddr: 0x4DD58, symBinAddr: 0xB47A8, symSize: 0x0 }
  - { offset: 0x343EE9, size: 0x8, addend: 0x0, symName: __ZL23stbi__depth_scale_table, symObjAddr: 0x49BE0, symBinAddr: 0xA502C, symSize: 0x0 }
  - { offset: 0x343F11, size: 0x8, addend: 0x0, symName: __ZL16first_row_filter, symObjAddr: 0x49C5C, symBinAddr: 0xA50A8, symSize: 0x0 }
  - { offset: 0x343F2D, size: 0x8, addend: 0x0, symName: __ZL20stbi__process_markerP10stbi__jpegi, symObjAddr: 0x17660, symBinAddr: 0x59FA8, symSize: 0xE18 }
  - { offset: 0x3446B8, size: 0x8, addend: 0x0, symName: __ZL19stbi__jpeg_dezigzag, symObjAddr: 0x49CAC, symBinAddr: 0xA50F8, symSize: 0x0 }
  - { offset: 0x3446D4, size: 0x8, addend: 0x0, symName: __ZL26stbi__process_frame_headerP10stbi__jpegi, symObjAddr: 0x18478, symBinAddr: 0x5ADC0, symSize: 0x85C }
  - { offset: 0x344700, size: 0x8, addend: 0x0, symName: __ZZL26stbi__process_frame_headerP10stbi__jpegiE3rgb, symObjAddr: 0x49CFB, symBinAddr: 0xA5147, symSize: 0x0 }
  - { offset: 0x344B36, size: 0x8, addend: 0x0, symName: __ZL11stbi__bmask, symObjAddr: 0x49D00, symBinAddr: 0xA514C, symSize: 0x0 }
  - { offset: 0x344B6F, size: 0x8, addend: 0x0, symName: __ZL11stbi__jbias, symObjAddr: 0x49D44, symBinAddr: 0xA5190, symSize: 0x0 }
  - { offset: 0x344B9C, size: 0x8, addend: 0x0, symName: __MergedGlobals, symObjAddr: 0x4DEC8, symBinAddr: 0xB4918, symSize: 0x0 }
  - { offset: 0x344BBD, size: 0x8, addend: 0x0, symName: __MergedGlobals, symObjAddr: 0x4DEC8, symBinAddr: 0xB4918, symSize: 0x0 }
  - { offset: 0x344BD9, size: 0x8, addend: 0x0, symName: __MergedGlobals, symObjAddr: 0x4DEC8, symBinAddr: 0xB4918, symSize: 0x0 }
  - { offset: 0x344BF5, size: 0x8, addend: 0x0, symName: __MergedGlobals, symObjAddr: 0x4DEC8, symBinAddr: 0xB4918, symSize: 0x0 }
  - { offset: 0x344C11, size: 0x8, addend: 0x0, symName: __ZL21stbi__zdefault_length, symObjAddr: 0x49D84, symBinAddr: 0xA51D0, symSize: 0x0 }
  - { offset: 0x344C3A, size: 0x8, addend: 0x0, symName: __ZL23stbi__zdefault_distance, symObjAddr: 0x49EA4, symBinAddr: 0xA52F0, symSize: 0x0 }
  - { offset: 0x344C62, size: 0x8, addend: 0x0, symName: __ZL18stbi__zlength_base, symObjAddr: 0x49ED8, symBinAddr: 0xA5324, symSize: 0x0 }
  - { offset: 0x344C8A, size: 0x8, addend: 0x0, symName: __ZL19stbi__zlength_extra, symObjAddr: 0x49F54, symBinAddr: 0xA53A0, symSize: 0x0 }
  - { offset: 0x344CA4, size: 0x8, addend: 0x0, symName: __ZL16stbi__zdist_base, symObjAddr: 0x49FD0, symBinAddr: 0xA541C, symSize: 0x0 }
  - { offset: 0x344CCC, size: 0x8, addend: 0x0, symName: __ZL17stbi__zdist_extra, symObjAddr: 0x4A050, symBinAddr: 0xA549C, symSize: 0x0 }
  - { offset: 0x344CE6, size: 0x8, addend: 0x0, symName: __ZL34stbi__unpremultiply_on_load_global, symObjAddr: 0x1D6234, symBinAddr: 0xB4D4C, symSize: 0x0 }
  - { offset: 0x344D00, size: 0x8, addend: 0x0, symName: __ZL27stbi__de_iphone_flag_global, symObjAddr: 0x1D6238, symBinAddr: 0xB4D50, symSize: 0x0 }
  - { offset: 0x344D1A, size: 0x8, addend: 0x0, symName: __ZL33stbi__unpremultiply_on_load_local, symObjAddr: 0x4D2E4, symBinAddr: 0xB4A28, symSize: 0x0 }
  - { offset: 0x344D35, size: 0x8, addend: 0x0, symName: __ZL31stbi__unpremultiply_on_load_set, symObjAddr: 0x4D2FC, symBinAddr: 0xB4A40, symSize: 0x0 }
  - { offset: 0x344D50, size: 0x8, addend: 0x0, symName: __ZL26stbi__de_iphone_flag_local, symObjAddr: 0x4D314, symBinAddr: 0xB4A58, symSize: 0x0 }
  - { offset: 0x344D6B, size: 0x8, addend: 0x0, symName: __ZL24stbi__de_iphone_flag_set, symObjAddr: 0x4D32C, symBinAddr: 0xB4A70, symSize: 0x0 }
  - { offset: 0x34C27D, size: 0x8, addend: 0x0, symName: __MergedGlobals, symObjAddr: 0x4DEC8, symBinAddr: 0xB4918, symSize: 0x0 }
  - { offset: 0x34C651, size: 0x8, addend: 0x0, symName: __MergedGlobals, symObjAddr: 0x4DEC8, symBinAddr: 0xB4918, symSize: 0x0 }
  - { offset: 0x34C92F, size: 0x8, addend: 0x0, symName: __ZL18g_ma_wav_ds_vtable, symObjAddr: 0x4DD78, symBinAddr: 0xB47C8, symSize: 0x0 }
  - { offset: 0x34C94C, size: 0x8, addend: 0x0, symName: __ZL20ma_dr_wav_gAlawTable, symObjAddr: 0x4A0D0, symBinAddr: 0xA551C, symSize: 0x0 }
  - { offset: 0x34C984, size: 0x8, addend: 0x0, symName: __ZL21ma_dr_wav_gMulawTable, symObjAddr: 0x4A2D0, symBinAddr: 0xA571C, symSize: 0x0 }
  - { offset: 0x34C992, size: 0x8, addend: 0x0, symName: __ZL38ma_dr_wav_read_pcm_frames_s16__msadpcmP9ma_dr_wavyPs, symObjAddr: 0x22A20, symBinAddr: 0x651A0, symSize: 0x598 }
  - { offset: 0x34C9C2, size: 0x8, addend: 0x0, symName: __ZZL38ma_dr_wav_read_pcm_frames_s16__msadpcmP9ma_dr_wavyPsE15adaptationTable, symObjAddr: 0x4A4D0, symBinAddr: 0xA591C, symSize: 0x0 }
  - { offset: 0x34C9DB, size: 0x8, addend: 0x0, symName: __ZZL38ma_dr_wav_read_pcm_frames_s16__msadpcmP9ma_dr_wavyPsE11coeff1Table, symObjAddr: 0x4A510, symBinAddr: 0xA595C, symSize: 0x0 }
  - { offset: 0x34C9F4, size: 0x8, addend: 0x0, symName: __ZZL38ma_dr_wav_read_pcm_frames_s16__msadpcmP9ma_dr_wavyPsE11coeff2Table, symObjAddr: 0x4A52C, symBinAddr: 0xA5978, symSize: 0x0 }
  - { offset: 0x34CCF2, size: 0x8, addend: 0x0, symName: __ZL34ma_dr_wav_read_pcm_frames_s16__imaP9ma_dr_wavyPs, symObjAddr: 0x22FB8, symBinAddr: 0x65738, symSize: 0x48C }
  - { offset: 0x34CD22, size: 0x8, addend: 0x0, symName: __ZZL34ma_dr_wav_read_pcm_frames_s16__imaP9ma_dr_wavyPsE10indexTable, symObjAddr: 0x4A548, symBinAddr: 0xA5994, symSize: 0x0 }
  - { offset: 0x34CD3B, size: 0x8, addend: 0x0, symName: __ZZL34ma_dr_wav_read_pcm_frames_s16__imaP9ma_dr_wavyPsE9stepTable, symObjAddr: 0x4A588, symBinAddr: 0xA59D4, symSize: 0x0 }
  - { offset: 0x34CFA6, size: 0x8, addend: 0x0, symName: __ZL22ma_dr_wavGUID_W64_WAVE, symObjAddr: 0x4A6EC, symBinAddr: 0xA5B38, symSize: 0x0 }
  - { offset: 0x34CFC3, size: 0x8, addend: 0x0, symName: __ZL22ma_dr_wavGUID_W64_FACT, symObjAddr: 0x4A6FC, symBinAddr: 0xA5B48, symSize: 0x0 }
  - { offset: 0x34CFDD, size: 0x8, addend: 0x0, symName: __MergedGlobals, symObjAddr: 0x4DEC8, symBinAddr: 0xB4918, symSize: 0x0 }
  - { offset: 0x34CFF9, size: 0x8, addend: 0x0, symName: __ZL19g_ma_flac_ds_vtable, symObjAddr: 0x4DDB0, symBinAddr: 0xB4800, symSize: 0x0 }
  - { offset: 0x34D016, size: 0x8, addend: 0x0, symName: __ZL22ma_dr_flac__crc8_table, symObjAddr: 0x4A73C, symBinAddr: 0xA5B88, symSize: 0x0 }
  - { offset: 0x34D042, size: 0x8, addend: 0x0, symName: __ZL23ma_dr_flac__crc16_table, symObjAddr: 0x4A83C, symBinAddr: 0xA5C88, symSize: 0x0 }
  - { offset: 0x34D07A, size: 0x8, addend: 0x0, symName: __ZL28ma_dr_flac__gIsNEONSupported, symObjAddr: 0x1D623C, symBinAddr: 0xB4D54, symSize: 0x0 }
  - { offset: 0x34D09E, size: 0x8, addend: 0x0, symName: __ZL23ma_dr_flac__crc32_table, symObjAddr: 0x4AA48, symBinAddr: 0xA5E94, symSize: 0x0 }
  - { offset: 0x34D0C7, size: 0x8, addend: 0x0, symName: __MergedGlobals, symObjAddr: 0x4DEC8, symBinAddr: 0xB4918, symSize: 0x0 }
  - { offset: 0x34D0E3, size: 0x8, addend: 0x0, symName: __ZL18g_ma_mp3_ds_vtable, symObjAddr: 0x4DE38, symBinAddr: 0xB4888, symSize: 0x0 }
  - { offset: 0x34D0F1, size: 0x8, addend: 0x0, symName: __ZL27ma_dr_mp3_L3_read_side_infoP12ma_dr_mp3_bsP20ma_dr_mp3_L3_gr_infoPKh, symObjAddr: 0x3EBA0, symBinAddr: 0x81320, symSize: 0x98C }
  - { offset: 0x34D121, size: 0x8, addend: 0x0, symName: __ZZL27ma_dr_mp3_L3_read_side_infoP12ma_dr_mp3_bsP20ma_dr_mp3_L3_gr_infoPKhE10g_scf_long, symObjAddr: 0x4AEAE, symBinAddr: 0xA62FA, symSize: 0x0 }
  - { offset: 0x34D13A, size: 0x8, addend: 0x0, symName: __ZZL27ma_dr_mp3_L3_read_side_infoP12ma_dr_mp3_bsP20ma_dr_mp3_L3_gr_infoPKhE11g_scf_short, symObjAddr: 0x4AF66, symBinAddr: 0xA63B2, symSize: 0x0 }
  - { offset: 0x34D153, size: 0x8, addend: 0x0, symName: __ZZL27ma_dr_mp3_L3_read_side_infoP12ma_dr_mp3_bsP20ma_dr_mp3_L3_gr_infoPKhE11g_scf_mixed, symObjAddr: 0x4B0A6, symBinAddr: 0xA64F2, symSize: 0x0 }
  - { offset: 0x34D93C, size: 0x8, addend: 0x0, symName: __ZL17ma_dr_mp3_g_pow43, symObjAddr: 0x4C3E8, symBinAddr: 0xA7834, symSize: 0x0 }
  - { offset: 0x34D958, size: 0x8, addend: 0x0, symName: __ZL20ma_dr_mp3_L3_imdct36PfS_PKfi, symObjAddr: 0x40498, symBinAddr: 0x82C18, symSize: 0x3D4 }
  - { offset: 0x34DD10, size: 0x8, addend: 0x0, symName: __ZL28g_ma_linear_resampler_vtable, symObjAddr: 0x4DE70, symBinAddr: 0xB48C0, symSize: 0x0 }
  - { offset: 0x34DF97, size: 0x8, addend: 0x0, symName: __ZL22g_maChannelPlaneRatios, symObjAddr: 0x4CC08, symBinAddr: 0xA8054, symSize: 0x0 }
  - { offset: 0x34DFC6, size: 0x8, addend: 0x0, symName: __ZL7g_maLCG.0, symObjAddr: 0x4DEC0, symBinAddr: 0xB4910, symSize: 0x0 }
  - { offset: 0x3516A4, size: 0x8, addend: 0x0, symName: _stbi_failure_reason, symObjAddr: 0x0, symBinAddr: 0x42948, symSize: 0x24 }
  - { offset: 0x3516CC, size: 0x8, addend: 0x0, symName: _stbi_image_free, symObjAddr: 0x24, symBinAddr: 0x4296C, symSize: 0x4 }
  - { offset: 0x3516EB, size: 0x8, addend: 0x0, symName: _stbi_image_free, symObjAddr: 0x24, symBinAddr: 0x4296C, symSize: 0x4 }
  - { offset: 0x35170D, size: 0x8, addend: 0x0, symName: _stbi_set_flip_vertically_on_load, symObjAddr: 0x28, symBinAddr: 0x42970, symSize: 0xC }
  - { offset: 0x351734, size: 0x8, addend: 0x0, symName: _stbi_set_flip_vertically_on_load_thread, symObjAddr: 0x34, symBinAddr: 0x4297C, symSize: 0x40 }
  - { offset: 0x3518AF, size: 0x8, addend: 0x0, symName: _stbi_load, symObjAddr: 0x74, symBinAddr: 0x429BC, symSize: 0x174 }
  - { offset: 0x351B0F, size: 0x8, addend: 0x0, symName: __ZL31stbi__load_and_postprocess_8bitP13stbi__contextPiS1_S1_i, symObjAddr: 0x320, symBinAddr: 0x42C68, symSize: 0x2BC }
  - { offset: 0x351DB6, size: 0x8, addend: 0x0, symName: _stbi_load_from_file, symObjAddr: 0x1E8, symBinAddr: 0x42B30, symSize: 0x138 }
  - { offset: 0x35203E, size: 0x8, addend: 0x0, symName: __ZL15stbi__load_mainP13stbi__contextPiS1_S1_iP17stbi__result_infoi, symObjAddr: 0x5F6C, symBinAddr: 0x488B4, symSize: 0x27BC }
  - { offset: 0x353A29, size: 0x8, addend: 0x0, symName: _stbi_load_from_file_16, symObjAddr: 0x5DC, symBinAddr: 0x42F24, symSize: 0x138 }
  - { offset: 0x353B77, size: 0x8, addend: 0x0, symName: __ZL32stbi__load_and_postprocess_16bitP13stbi__contextPiS1_S1_i, symObjAddr: 0x714, symBinAddr: 0x4305C, symSize: 0x2E8 }
  - { offset: 0x353EB9, size: 0x8, addend: 0x0, symName: _stbi_load_16, symObjAddr: 0x9FC, symBinAddr: 0x43344, symSize: 0x174 }
  - { offset: 0x354132, size: 0x8, addend: 0x0, symName: _stbi_load_16_from_memory, symObjAddr: 0xB70, symBinAddr: 0x434B8, symSize: 0x7C }
  - { offset: 0x354228, size: 0x8, addend: 0x0, symName: _stbi_load_16_from_callbacks, symObjAddr: 0xBEC, symBinAddr: 0x43534, symSize: 0x108 }
  - { offset: 0x35436E, size: 0x8, addend: 0x0, symName: _stbi_load_from_memory, symObjAddr: 0xCF4, symBinAddr: 0x4363C, symSize: 0x7C }
  - { offset: 0x35442C, size: 0x8, addend: 0x0, symName: _stbi_load_from_callbacks, symObjAddr: 0xD70, symBinAddr: 0x436B8, symSize: 0x108 }
  - { offset: 0x354700, size: 0x8, addend: 0x0, symName: _stbi_load_gif_from_memory, symObjAddr: 0xE78, symBinAddr: 0x437C0, symSize: 0x5E4 }
  - { offset: 0x354DD0, size: 0x8, addend: 0x0, symName: __ZL14stbi__gif_testP13stbi__context, symObjAddr: 0x8728, symBinAddr: 0x4B070, symSize: 0x39C }
  - { offset: 0x355018, size: 0x8, addend: 0x0, symName: __ZL19stbi__gif_load_nextP13stbi__contextP9stbi__gifPiiPh, symObjAddr: 0x149FC, symBinAddr: 0x57344, symSize: 0x11C4 }
  - { offset: 0x3558EE, size: 0x8, addend: 0x0, symName: __ZL20stbi__convert_formatPhiijj, symObjAddr: 0xF6EC, symBinAddr: 0x52034, symSize: 0x1180 }
  - { offset: 0x355B89, size: 0x8, addend: 0x0, symName: _stbi_loadf_from_memory, symObjAddr: 0x145C, symBinAddr: 0x43DA4, symSize: 0x7C }
  - { offset: 0x355C7F, size: 0x8, addend: 0x0, symName: __ZL16stbi__loadf_mainP13stbi__contextPiS1_S1_i, symObjAddr: 0x14D8, symBinAddr: 0x43E20, symSize: 0x68C }
  - { offset: 0x35626C, size: 0x8, addend: 0x0, symName: __ZL14stbi__hdr_testP13stbi__context, symObjAddr: 0x1F38, symBinAddr: 0x44880, symSize: 0x498 }
  - { offset: 0x356466, size: 0x8, addend: 0x0, symName: __ZL14stbi__hdr_loadP13stbi__contextPiS1_S1_iP17stbi__result_info, symObjAddr: 0xBCA8, symBinAddr: 0x4E5F0, symSize: 0x9BC }
  - { offset: 0x356BBC, size: 0x8, addend: 0x0, symName: _stbi_loadf_from_callbacks, symObjAddr: 0x1B64, symBinAddr: 0x444AC, symSize: 0x108 }
  - { offset: 0x356D59, size: 0x8, addend: 0x0, symName: _stbi_loadf, symObjAddr: 0x1C6C, symBinAddr: 0x445B4, symSize: 0x154 }
  - { offset: 0x356F79, size: 0x8, addend: 0x0, symName: _stbi_loadf_from_file, symObjAddr: 0x1DC0, symBinAddr: 0x44708, symSize: 0x10C }
  - { offset: 0x3570A7, size: 0x8, addend: 0x0, symName: _stbi_is_hdr_from_memory, symObjAddr: 0x1ECC, symBinAddr: 0x44814, symSize: 0x6C }
  - { offset: 0x3571E9, size: 0x8, addend: 0x0, symName: _stbi_is_hdr, symObjAddr: 0x23D0, symBinAddr: 0x44D18, symSize: 0x12C }
  - { offset: 0x3573B2, size: 0x8, addend: 0x0, symName: _stbi_is_hdr_from_file, symObjAddr: 0x24FC, symBinAddr: 0x44E44, symSize: 0x10C }
  - { offset: 0x3574E3, size: 0x8, addend: 0x0, symName: _stbi_is_hdr_from_callbacks, symObjAddr: 0x2608, symBinAddr: 0x44F50, symSize: 0xD8 }
  - { offset: 0x3575C9, size: 0x8, addend: 0x0, symName: _stbi_ldr_to_hdr_gamma, symObjAddr: 0x26E0, symBinAddr: 0x45028, symSize: 0xC }
  - { offset: 0x3575F1, size: 0x8, addend: 0x0, symName: _stbi_ldr_to_hdr_scale, symObjAddr: 0x26EC, symBinAddr: 0x45034, symSize: 0xC }
  - { offset: 0x357619, size: 0x8, addend: 0x0, symName: _stbi_hdr_to_ldr_gamma, symObjAddr: 0x26F8, symBinAddr: 0x45040, symSize: 0x14 }
  - { offset: 0x357642, size: 0x8, addend: 0x0, symName: _stbi_hdr_to_ldr_scale, symObjAddr: 0x270C, symBinAddr: 0x45054, symSize: 0x14 }
  - { offset: 0x35766B, size: 0x8, addend: 0x0, symName: _stbi_zlib_decode_malloc_guesssize, symObjAddr: 0x2720, symBinAddr: 0x45068, symSize: 0xFC }
  - { offset: 0x35771E, size: 0x8, addend: 0x0, symName: __ZL13stbi__do_zlibP10stbi__zbufPciii, symObjAddr: 0x281C, symBinAddr: 0x45164, symSize: 0x1178 }
  - { offset: 0x3587B1, size: 0x8, addend: 0x0, symName: __ZL20stbi__zbuild_huffmanP14stbi__zhuffmanPKhi, symObjAddr: 0x1AA28, symBinAddr: 0x5D370, symSize: 0x4C8 }
  - { offset: 0x358976, size: 0x8, addend: 0x0, symName: _stbi_zlib_decode_malloc, symObjAddr: 0x3994, symBinAddr: 0x462DC, symSize: 0xF0 }
  - { offset: 0x358A62, size: 0x8, addend: 0x0, symName: _stbi_zlib_decode_malloc_guesssize_headerflag, symObjAddr: 0x3A84, symBinAddr: 0x463CC, symSize: 0x100 }
  - { offset: 0x358B20, size: 0x8, addend: 0x0, symName: _stbi_zlib_decode_buffer, symObjAddr: 0x3B84, symBinAddr: 0x464CC, symSize: 0x8C }
  - { offset: 0x358BC2, size: 0x8, addend: 0x0, symName: _stbi_zlib_decode_noheader_malloc, symObjAddr: 0x3C10, symBinAddr: 0x46558, symSize: 0xF0 }
  - { offset: 0x358CA3, size: 0x8, addend: 0x0, symName: _stbi_zlib_decode_noheader_buffer, symObjAddr: 0x3D00, symBinAddr: 0x46648, symSize: 0x8C }
  - { offset: 0x358D45, size: 0x8, addend: 0x0, symName: _stbi_set_unpremultiply_on_load, symObjAddr: 0x3D8C, symBinAddr: 0x466D4, symSize: 0xC }
  - { offset: 0x358D6C, size: 0x8, addend: 0x0, symName: _stbi_convert_iphone_png_to_rgb, symObjAddr: 0x3D98, symBinAddr: 0x466E0, symSize: 0xC }
  - { offset: 0x358D93, size: 0x8, addend: 0x0, symName: _stbi_set_unpremultiply_on_load_thread, symObjAddr: 0x3DA4, symBinAddr: 0x466EC, symSize: 0x40 }
  - { offset: 0x358DD4, size: 0x8, addend: 0x0, symName: _stbi_convert_iphone_png_to_rgb_thread, symObjAddr: 0x3DE4, symBinAddr: 0x4672C, symSize: 0x40 }
  - { offset: 0x358E78, size: 0x8, addend: 0x0, symName: _stbi_info, symObjAddr: 0x3E24, symBinAddr: 0x4676C, symSize: 0x168 }
  - { offset: 0x3590C2, size: 0x8, addend: 0x0, symName: __ZL15stbi__info_mainP13stbi__contextPiS1_S1_, symObjAddr: 0x40B8, symBinAddr: 0x46A00, symSize: 0x2E8 }
  - { offset: 0x359604, size: 0x8, addend: 0x0, symName: _stbi_info_from_file, symObjAddr: 0x3F8C, symBinAddr: 0x468D4, symSize: 0x12C }
  - { offset: 0x359A80, size: 0x8, addend: 0x0, symName: __ZL24stbi__decode_jpeg_headerP10stbi__jpegi, symObjAddr: 0x16CBC, symBinAddr: 0x59604, symSize: 0x15C }
  - { offset: 0x359B8F, size: 0x8, addend: 0x0, symName: __ZL16stbi__gif_headerP13stbi__contextP9stbi__gifPii, symObjAddr: 0x15BC0, symBinAddr: 0x58508, symSize: 0x604 }
  - { offset: 0x359F2E, size: 0x8, addend: 0x0, symName: __ZL22stbi__bmp_parse_headerP13stbi__contextP14stbi__bmp_data, symObjAddr: 0x14258, symBinAddr: 0x56BA0, symSize: 0x6B0 }
  - { offset: 0x35A7E0, size: 0x8, addend: 0x0, symName: __ZL14stbi__psd_infoP13stbi__contextPiS1_S1_, symObjAddr: 0x1AEF0, symBinAddr: 0x5D838, symSize: 0x164 }
  - { offset: 0x35AA27, size: 0x8, addend: 0x0, symName: __ZL14stbi__pic_infoP13stbi__contextPiS1_S1_, symObjAddr: 0x1B054, symBinAddr: 0x5D99C, symSize: 0x400 }
  - { offset: 0x35AD82, size: 0x8, addend: 0x0, symName: __ZL14stbi__pnm_infoP13stbi__contextPiS1_S1_, symObjAddr: 0x19F68, symBinAddr: 0x5C8B0, symSize: 0x320 }
  - { offset: 0x35B057, size: 0x8, addend: 0x0, symName: __ZL14stbi__hdr_infoP13stbi__contextPiS1_S1_, symObjAddr: 0x1B454, symBinAddr: 0x5DD9C, symSize: 0x1C0 }
  - { offset: 0x35B1B9, size: 0x8, addend: 0x0, symName: __ZL14stbi__tga_infoP13stbi__contextPiS1_S1_, symObjAddr: 0x1B614, symBinAddr: 0x5DF5C, symSize: 0x580 }
  - { offset: 0x35B69E, size: 0x8, addend: 0x0, symName: _stbi_is_16_bit, symObjAddr: 0x43A0, symBinAddr: 0x46CE8, symSize: 0x148 }
  - { offset: 0x35B882, size: 0x8, addend: 0x0, symName: __ZL16stbi__is_16_mainP13stbi__context, symObjAddr: 0x45F4, symBinAddr: 0x46F3C, symSize: 0x148 }
  - { offset: 0x35BAA5, size: 0x8, addend: 0x0, symName: _stbi_is_16_bit_from_file, symObjAddr: 0x44E8, symBinAddr: 0x46E30, symSize: 0x10C }
  - { offset: 0x35BCB8, size: 0x8, addend: 0x0, symName: __ZL13stbi__get16beP13stbi__context, symObjAddr: 0x1192C, symBinAddr: 0x54274, symSize: 0x144 }
  - { offset: 0x35BD81, size: 0x8, addend: 0x0, symName: _stbi_info_from_memory, symObjAddr: 0x473C, symBinAddr: 0x47084, symSize: 0x78 }
  - { offset: 0x35BE5E, size: 0x8, addend: 0x0, symName: _stbi_info_from_callbacks, symObjAddr: 0x47B4, symBinAddr: 0x470FC, symSize: 0xF8 }
  - { offset: 0x35BF8C, size: 0x8, addend: 0x0, symName: _stbi_is_16_bit_from_memory, symObjAddr: 0x48AC, symBinAddr: 0x471F4, symSize: 0x6C }
  - { offset: 0x35C01E, size: 0x8, addend: 0x0, symName: _stbi_is_16_bit_from_callbacks, symObjAddr: 0x4918, symBinAddr: 0x47260, symSize: 0xD8 }
  - { offset: 0x35C104, size: 0x8, addend: 0x0, symName: _mtmd_helper_log_set, symObjAddr: 0x49F0, symBinAddr: 0x47338, symSize: 0x1C }
  - { offset: 0x35C161, size: 0x8, addend: 0x0, symName: _mtmd_helper_get_n_tokens, symObjAddr: 0x4A0C, symBinAddr: 0x47354, symSize: 0x60 }
  - { offset: 0x35C2A2, size: 0x8, addend: 0x0, symName: _mtmd_helper_get_n_pos, symObjAddr: 0x4A6C, symBinAddr: 0x473B4, symSize: 0x60 }
  - { offset: 0x35C38F, size: 0x8, addend: 0x0, symName: _mtmd_helper_image_get_decoder_pos, symObjAddr: 0x4ACC, symBinAddr: 0x47414, symSize: 0x6C }
  - { offset: 0x35CDF7, size: 0x8, addend: 0x0, symName: _mtmd_helper_decode_image_chunk, symObjAddr: 0x4B38, symBinAddr: 0x47480, symSize: 0x670 }
  - { offset: 0x35E05C, size: 0x8, addend: 0x0, symName: __ZN17decode_embd_batchC2EPfiii, symObjAddr: 0x1BCA8, symBinAddr: 0x5E5F0, symSize: 0x300 }
  - { offset: 0x35ED92, size: 0x8, addend: 0x0, symName: __ZN18mtmd_helper_logger3logE14ggml_log_levelPKcz, symObjAddr: 0x51A8, symBinAddr: 0x47AF0, symSize: 0x28 }
  - { offset: 0x35EE48, size: 0x8, addend: 0x0, symName: __ZN17decode_embd_batch8get_viewEii, symObjAddr: 0x51D0, symBinAddr: 0x47B18, symSize: 0x170 }
  - { offset: 0x35F20A, size: 0x8, addend: 0x0, symName: __ZN17decode_embd_batchD1Ev, symObjAddr: 0x5340, symBinAddr: 0x47C88, symSize: 0x80 }
  - { offset: 0x35F255, size: 0x8, addend: 0x0, symName: __ZNSt3__16vectorI16mtmd_decoder_posNS_9allocatorIS1_EEE20__throw_length_errorB9nqe210106Ev, symObjAddr: 0x4922C, symBinAddr: 0x8B880, symSize: 0x14 }
  - { offset: 0x35F278, size: 0x8, addend: 0x0, symName: __ZN17decode_embd_batchD1Ev, symObjAddr: 0x5340, symBinAddr: 0x47C88, symSize: 0x80 }
  - { offset: 0x35F917, size: 0x8, addend: 0x0, symName: __ZN18mtmd_helper_logger5log_vE14ggml_log_levelPKcPc, symObjAddr: 0x1BBC4, symBinAddr: 0x5E50C, symSize: 0xE4 }
  - { offset: 0x35FC40, size: 0x8, addend: 0x0, symName: __ZNSt3__16vectorIiNS_9allocatorIiEEE18__insert_with_sizeB9nqe210106IPiS5_EENS_11__wrap_iterIS5_EENS6_IPKiEET_T0_l, symObjAddr: 0x1C29C, symBinAddr: 0x5EA1C, symSize: 0x4C8 }
  - { offset: 0x3607E8, size: 0x8, addend: 0x0, symName: __ZL35ma_decoder_get_length_in_pcm_framesP10ma_decoderPy, symObjAddr: 0x1C764, symBinAddr: 0x5EEE4, symSize: 0x120 }
  - { offset: 0x36081A, size: 0x8, addend: 0x0, symName: _mtmd_helper_eval_chunk_single, symObjAddr: 0x53C0, symBinAddr: 0x47D08, symSize: 0x304 }
  - { offset: 0x360B20, size: 0x8, addend: 0x0, symName: _mtmd_helper_eval_chunks, symObjAddr: 0x56C4, symBinAddr: 0x4800C, symSize: 0x11C }
  - { offset: 0x360BB1, size: 0x8, addend: 0x0, symName: _mtmd_helper_eval_chunks, symObjAddr: 0x56C4, symBinAddr: 0x4800C, symSize: 0x11C }
  - { offset: 0x361669, size: 0x8, addend: 0x0, symName: _mtmd_helper_bitmap_init_from_buf, symObjAddr: 0x57E0, symBinAddr: 0x48128, symSize: 0x544 }
  - { offset: 0x362340, size: 0x8, addend: 0x0, symName: __ZL25ma_decoder_init__internalPF9ma_resultP10ma_decoderPvmPmEPFS_S1_x14ma_seek_originES2_PK17ma_decoder_configS1_, symObjAddr: 0x1DE24, symBinAddr: 0x605A4, symSize: 0x410 }
  - { offset: 0x362A4F, size: 0x8, addend: 0x0, symName: __ZL20ma_decoder__postinitPK17ma_decoder_configP10ma_decoder, symObjAddr: 0x1CCC8, symBinAddr: 0x5F448, symSize: 0x115C }
  - { offset: 0x3638F3, size: 0x8, addend: 0x0, symName: __ZL41ma_calculate_frame_count_after_resamplingjjy, symObjAddr: 0x1E68C, symBinAddr: 0x60E0C, symSize: 0x54 }
  - { offset: 0x363BED, size: 0x8, addend: 0x0, symName: __ZL17ma_decoder_uninitP10ma_decoder, symObjAddr: 0x1C884, symBinAddr: 0x5F004, symSize: 0x12C }
  - { offset: 0x363E22, size: 0x8, addend: 0x0, symName: __ZL26ma_decoder_read_pcm_framesP10ma_decoderPvyPy, symObjAddr: 0x1C9B0, symBinAddr: 0x5F130, symSize: 0x318 }
  - { offset: 0x3644FB, size: 0x8, addend: 0x0, symName: _mtmd_helper_bitmap_init_from_file, symObjAddr: 0x5D24, symBinAddr: 0x4866C, symSize: 0x198 }
  - { offset: 0x3649D2, size: 0x8, addend: 0x0, symName: __ZL16stbi__stdio_readPvPci, symObjAddr: 0x5EBC, symBinAddr: 0x48804, symSize: 0x24 }
  - { offset: 0x364A4A, size: 0x8, addend: 0x0, symName: __ZL16stbi__stdio_skipPvi, symObjAddr: 0x5EE0, symBinAddr: 0x48828, symSize: 0x48 }
  - { offset: 0x364B04, size: 0x8, addend: 0x0, symName: __ZL15stbi__stdio_eofPv, symObjAddr: 0x5F28, symBinAddr: 0x48870, symSize: 0x44 }
  - { offset: 0x3652DD, size: 0x8, addend: 0x0, symName: __ZL13stbi__get16leP13stbi__context, symObjAddr: 0x14114, symBinAddr: 0x56A5C, symSize: 0x144 }
  - { offset: 0x3653BF, size: 0x8, addend: 0x0, symName: __ZL14stbi__pic_testP13stbi__context, symObjAddr: 0x8AC4, symBinAddr: 0x4B40C, symSize: 0xD0 }
  - { offset: 0x3654C9, size: 0x8, addend: 0x0, symName: __ZL14stbi__pic_loadP13stbi__contextPiS1_S1_iP17stbi__result_info, symObjAddr: 0x8B94, symBinAddr: 0x4B4DC, symSize: 0xAB8 }
  - { offset: 0x365E57, size: 0x8, addend: 0x0, symName: __ZL15stbi__jpeg_testP13stbi__context, symObjAddr: 0x964C, symBinAddr: 0x4BF94, symSize: 0xF0 }
  - { offset: 0x365FCA, size: 0x8, addend: 0x0, symName: __ZL15stbi__jpeg_loadP13stbi__contextPiS1_S1_iP17stbi__result_info, symObjAddr: 0x973C, symBinAddr: 0x4C084, symSize: 0x2138 }
  - { offset: 0x3673E4, size: 0x8, addend: 0x0, symName: __ZL14stbi__pnm_testP13stbi__context, symObjAddr: 0xB874, symBinAddr: 0x4E1BC, symSize: 0x16C }
  - { offset: 0x3674F5, size: 0x8, addend: 0x0, symName: __ZL14stbi__pnm_loadP13stbi__contextPiS1_S1_iP17stbi__result_info, symObjAddr: 0xB9E0, symBinAddr: 0x4E328, symSize: 0x2C8 }
  - { offset: 0x36788D, size: 0x8, addend: 0x0, symName: __ZL13stbi__get32beP13stbi__context, symObjAddr: 0x118FC, symBinAddr: 0x54244, symSize: 0x30 }
  - { offset: 0x3678E3, size: 0x8, addend: 0x0, symName: __ZL10stbi__skipP13stbi__contexti, symObjAddr: 0x118B0, symBinAddr: 0x541F8, symSize: 0x4C }
  - { offset: 0x367935, size: 0x8, addend: 0x0, symName: __ZL16stbi__hdr_to_ldrPfiii, symObjAddr: 0xC664, symBinAddr: 0x4EFAC, symSize: 0x6CC }
  - { offset: 0x367B6B, size: 0x8, addend: 0x0, symName: __ZL14stbi__tga_testP13stbi__context, symObjAddr: 0xCD30, symBinAddr: 0x4F678, symSize: 0x488 }
  - { offset: 0x367EEE, size: 0x8, addend: 0x0, symName: __ZL14stbi__tga_loadP13stbi__contextPiS1_S1_iP17stbi__result_info, symObjAddr: 0xD1B8, symBinAddr: 0x4FB00, symSize: 0xDDC }
  - { offset: 0x3689D2, size: 0x8, addend: 0x0, symName: __ZL21stbi__mad3sizes_validiiii, symObjAddr: 0x1404C, symBinAddr: 0x56994, symSize: 0x58 }
  - { offset: 0x368A09, size: 0x8, addend: 0x0, symName: __ZL21stbi__mad3sizes_validiiii, symObjAddr: 0x1404C, symBinAddr: 0x56994, symSize: 0x58 }
  - { offset: 0x368A75, size: 0x8, addend: 0x0, symName: __ZL17stbi__malloc_mad3iiii, symObjAddr: 0x13FEC, symBinAddr: 0x56934, symSize: 0x60 }
  - { offset: 0x368AAC, size: 0x8, addend: 0x0, symName: __ZL17stbi__malloc_mad3iiii, symObjAddr: 0x13FEC, symBinAddr: 0x56934, symSize: 0x60 }
  - { offset: 0x368ADE, size: 0x8, addend: 0x0, symName: __ZL17stbi__malloc_mad3iiii, symObjAddr: 0x13FEC, symBinAddr: 0x56934, symSize: 0x60 }
  - { offset: 0x368B77, size: 0x8, addend: 0x0, symName: __ZL20stbi__psd_decode_rleP13stbi__contextPhi, symObjAddr: 0x164AC, symBinAddr: 0x58DF4, symSize: 0x29C }
  - { offset: 0x368D0C, size: 0x8, addend: 0x0, symName: __ZL14stbi__high_bitj, symObjAddr: 0x14908, symBinAddr: 0x57250, symSize: 0x68 }
  - { offset: 0x368D4E, size: 0x8, addend: 0x0, symName: __ZL14stbi__bitcountj, symObjAddr: 0x14970, symBinAddr: 0x572B8, symSize: 0x38 }
  - { offset: 0x368D7F, size: 0x8, addend: 0x0, symName: __ZL22stbi__convert_format16Ptiijj, symObjAddr: 0x1086C, symBinAddr: 0x531B4, symSize: 0x1044 }
  - { offset: 0x369038, size: 0x8, addend: 0x0, symName: __ZL13stbi__pic_is4P13stbi__contextPKc, symObjAddr: 0x16748, symBinAddr: 0x59090, symSize: 0x250 }
  - { offset: 0x36933D, size: 0x8, addend: 0x0, symName: __ZL13stbi__readvalP13stbi__contextiPh, symObjAddr: 0x16998, symBinAddr: 0x592E0, symSize: 0x324 }
  - { offset: 0x369506, size: 0x8, addend: 0x0, symName: __ZL16stbi__get_markerP10stbi__jpeg, symObjAddr: 0x174C0, symBinAddr: 0x59E08, symSize: 0x1A0 }
  - { offset: 0x369E37, size: 0x8, addend: 0x0, symName: __ZL24stbi__grow_buffer_unsafeP10stbi__jpeg, symObjAddr: 0x199B0, symBinAddr: 0x5C2F8, symSize: 0x214 }
  - { offset: 0x369F4C, size: 0x8, addend: 0x0, symName: __ZL31stbi__jpeg_decode_block_prog_dcP10stbi__jpegPsP13stbi__huffmani, symObjAddr: 0x19BC4, symBinAddr: 0x5C50C, symSize: 0x3A4 }
  - { offset: 0x36A166, size: 0x8, addend: 0x0, symName: __ZL23stbi__jpeg_decode_blockP10stbi__jpegPsP13stbi__huffmanS3_S1_iPt, symObjAddr: 0x194E4, symBinAddr: 0x5BE2C, symSize: 0x4CC }
  - { offset: 0x36A5A1, size: 0x8, addend: 0x0, symName: __ZL18stbi__hdr_gettokenP13stbi__contextPc, symObjAddr: 0x1A68C, symBinAddr: 0x5CFD4, symSize: 0x264 }
  - { offset: 0x36A76B, size: 0x8, addend: 0x0, symName: __ZL21stbi__mad4sizes_validiiiii, symObjAddr: 0x1A288, symBinAddr: 0x5CBD0, symSize: 0x6C }
  - { offset: 0x36A7A9, size: 0x8, addend: 0x0, symName: __ZL21stbi__mad4sizes_validiiiii, symObjAddr: 0x1A288, symBinAddr: 0x5CBD0, symSize: 0x6C }
  - { offset: 0x36A815, size: 0x8, addend: 0x0, symName: __ZL17stbi__malloc_mad4iiiii, symObjAddr: 0x1A2F4, symBinAddr: 0x5CC3C, symSize: 0x70 }
  - { offset: 0x36A853, size: 0x8, addend: 0x0, symName: __ZL17stbi__malloc_mad4iiiii, symObjAddr: 0x1A2F4, symBinAddr: 0x5CC3C, symSize: 0x70 }
  - { offset: 0x36A88C, size: 0x8, addend: 0x0, symName: __ZL17stbi__malloc_mad4iiiii, symObjAddr: 0x1A2F4, symBinAddr: 0x5CC3C, symSize: 0x70 }
  - { offset: 0x36A925, size: 0x8, addend: 0x0, symName: __ZL10stbi__get8P13stbi__context, symObjAddr: 0xDF94, symBinAddr: 0x508DC, symSize: 0xB4 }
  - { offset: 0x36A97B, size: 0x8, addend: 0x0, symName: __ZL17stbi__hdr_convertPfPhi, symObjAddr: 0x1A8F0, symBinAddr: 0x5D238, symSize: 0x138 }
  - { offset: 0x36AABD, size: 0x8, addend: 0x0, symName: __ZL10stbi__getnP13stbi__contextPhi, symObjAddr: 0x11A70, symBinAddr: 0x543B8, symSize: 0xD0 }
  - { offset: 0x36ADD3, size: 0x8, addend: 0x0, symName: __ZL26stbi__create_png_image_rawP9stbi__pngPhjijjii, symObjAddr: 0x123FC, symBinAddr: 0x54D44, symSize: 0x1BF0 }
  - { offset: 0x36B3E6, size: 0x8, addend: 0x0, symName: __ZL28stbi__compute_transparency16P9stbi__pngPti, symObjAddr: 0x11B40, symBinAddr: 0x54488, symSize: 0x2F8 }
  - { offset: 0x36B470, size: 0x8, addend: 0x0, symName: __ZL26stbi__compute_transparencyP9stbi__pngPhi, symObjAddr: 0x11E38, symBinAddr: 0x54780, symSize: 0x3DC }
  - { offset: 0x36B4FA, size: 0x8, addend: 0x0, symName: __ZL15stbi__de_iphoneP9stbi__png, symObjAddr: 0x12214, symBinAddr: 0x54B5C, symSize: 0x1E8 }
  - { offset: 0x36B712, size: 0x8, addend: 0x0, symName: __ZL17stbi__malloc_mad2iii, symObjAddr: 0x140A4, symBinAddr: 0x569EC, symSize: 0x40 }
  - { offset: 0x36B742, size: 0x8, addend: 0x0, symName: __ZL17stbi__malloc_mad2iii, symObjAddr: 0x140A4, symBinAddr: 0x569EC, symSize: 0x40 }
  - { offset: 0x36B76D, size: 0x8, addend: 0x0, symName: __ZL17stbi__malloc_mad2iii, symObjAddr: 0x140A4, symBinAddr: 0x569EC, symSize: 0x40 }
  - { offset: 0x36B7E1, size: 0x8, addend: 0x0, symName: __ZL13stbi__get32leP13stbi__context, symObjAddr: 0x140E4, symBinAddr: 0x56A2C, symSize: 0x30 }
  - { offset: 0x36B869, size: 0x8, addend: 0x0, symName: __ZL27stbi__bmp_set_mask_defaultsP14stbi__bmp_datai, symObjAddr: 0x149A8, symBinAddr: 0x572F0, symSize: 0x54 }
  - { offset: 0x36B95C, size: 0x8, addend: 0x0, symName: __ZL26stbi__gif_parse_colortableP13stbi__contextPA4_hii, symObjAddr: 0x161C4, symBinAddr: 0x58B0C, symSize: 0x1C4 }
  - { offset: 0x36BABE, size: 0x8, addend: 0x0, symName: __ZL18stbi__out_gif_codeP9stbi__gift, symObjAddr: 0x16388, symBinAddr: 0x58CD0, symSize: 0x124 }
  - { offset: 0x36BB64, size: 0x8, addend: 0x0, symName: __ZL16stbi__idct_blockPhiPs, symObjAddr: 0x16E18, symBinAddr: 0x59760, symSize: 0x3D8 }
  - { offset: 0x36BE01, size: 0x8, addend: 0x0, symName: __ZL22stbi__YCbCr_to_RGB_rowPhPKhS1_S1_ii, symObjAddr: 0x171F0, symBinAddr: 0x59B38, symSize: 0xBC }
  - { offset: 0x36BF09, size: 0x8, addend: 0x0, symName: __ZL23stbi__resample_row_hv_2PhS_S_ii, symObjAddr: 0x172AC, symBinAddr: 0x59BF4, symSize: 0x214 }
  - { offset: 0x36C034, size: 0x8, addend: 0x0, symName: __ZL19stbi__build_huffmanP13stbi__huffmanPi, symObjAddr: 0x18CD4, symBinAddr: 0x5B61C, symSize: 0x1E8 }
  - { offset: 0x36C126, size: 0x8, addend: 0x0, symName: __ZL26stbi__free_jpeg_componentsP10stbi__jpegii, symObjAddr: 0x18EBC, symBinAddr: 0x5B804, symSize: 0x74 }
  - { offset: 0x36C18A, size: 0x8, addend: 0x0, symName: __ZL14resample_row_1PhS_S_ii, symObjAddr: 0x18F30, symBinAddr: 0x5B878, symSize: 0x8 }
  - { offset: 0x36C1EB, size: 0x8, addend: 0x0, symName: __ZL22stbi__resample_row_v_2PhS_S_ii, symObjAddr: 0x18F38, symBinAddr: 0x5B880, symSize: 0x170 }
  - { offset: 0x36C264, size: 0x8, addend: 0x0, symName: __ZL22stbi__resample_row_h_2PhS_S_ii, symObjAddr: 0x190A8, symBinAddr: 0x5B9F0, symSize: 0x1D0 }
  - { offset: 0x36C301, size: 0x8, addend: 0x0, symName: __ZL26stbi__resample_row_genericPhS_S_ii, symObjAddr: 0x19278, symBinAddr: 0x5BBC0, symSize: 0x26C }
  - { offset: 0x36C3E7, size: 0x8, addend: 0x0, symName: __ZL25stbi__pnm_skip_whitespaceP13stbi__contextPc, symObjAddr: 0x1A364, symBinAddr: 0x5CCAC, symSize: 0x1E4 }
  - { offset: 0x36C549, size: 0x8, addend: 0x0, symName: __ZL20stbi__pnm_getintegerP13stbi__contextPc, symObjAddr: 0x1A548, symBinAddr: 0x5CE90, symSize: 0x144 }
  - { offset: 0x36C6E1, size: 0x8, addend: 0x0, symName: __ZN18mtmd_helper_logger16default_callbackMUl14ggml_log_levelPKcPvE_8__invokeES0_S2_S3_, symObjAddr: 0x1BB94, symBinAddr: 0x5E4DC, symSize: 0x30 }
  - { offset: 0x36CFEF, size: 0x8, addend: 0x0, symName: __ZNSt3__16vectorIPiNS_9allocatorIS1_EEE8__appendEm, symObjAddr: 0x1C170, symBinAddr: 0x5E8F0, symSize: 0x118 }
  - { offset: 0x36D466, size: 0x8, addend: 0x0, symName: __ZNSt3__16vectorIPiNS_9allocatorIS1_EEE20__throw_length_errorB9nqe210106Ev, symObjAddr: 0x1C288, symBinAddr: 0x5EA08, symSize: 0x14 }
  - { offset: 0x36DABC, size: 0x8, addend: 0x0, symName: __ZNSt3__16vectorIPiNS_9allocatorIS1_EEE20__throw_length_errorB9nqe210106Ev, symObjAddr: 0x1C288, symBinAddr: 0x5EA08, symSize: 0x14 }
  - { offset: 0x36DAD4, size: 0x8, addend: 0x0, symName: __ZNSt3__16vectorIiNS_9allocatorIiEEE18__insert_with_sizeB9nqe210106IPiS5_EENS_11__wrap_iterIS5_EENS6_IPKiEET_T0_l, symObjAddr: 0x1C29C, symBinAddr: 0x5EA1C, symSize: 0x4C8 }
  - { offset: 0x36DF16, size: 0x8, addend: 0x0, symName: __ZL35ma_decoder_get_length_in_pcm_framesP10ma_decoderPy, symObjAddr: 0x1C764, symBinAddr: 0x5EEE4, symSize: 0x120 }
  - { offset: 0x36E2E7, size: 0x8, addend: 0x0, symName: __ZL30ma_data_source_read_pcm_framesPvS_yPy, symObjAddr: 0x43950, symBinAddr: 0x85FA4, symSize: 0x268 }
  - { offset: 0x36E633, size: 0x8, addend: 0x0, symName: __ZL36ma_data_converter_process_pcm_framesP17ma_data_converterPKvPyPvS3_, symObjAddr: 0x43BB8, symBinAddr: 0x8620C, symSize: 0xB18 }
  - { offset: 0x36FCC0, size: 0x8, addend: 0x0, symName: __ZL33ma_data_converter_get_heap_layoutPK24ma_data_converter_configP29ma_data_converter_heap_layout, symObjAddr: 0x417F0, symBinAddr: 0x83F70, symSize: 0x228 }
  - { offset: 0x36FF06, size: 0x8, addend: 0x0, symName: __ZL36ma_channel_converter_get_heap_layoutPK27ma_channel_converter_configP32ma_channel_converter_heap_layout, symObjAddr: 0x41A18, symBinAddr: 0x84198, symSize: 0x17C }
  - { offset: 0x37004C, size: 0x8, addend: 0x0, symName: __ZL47ma_channel_converter_config_get_conversion_pathPK27ma_channel_converter_config, symObjAddr: 0x41B94, symBinAddr: 0x84314, symSize: 0x30C }
  - { offset: 0x3702DF, size: 0x8, addend: 0x0, symName: __ZL36ma_channel_map_init_standard_channel23ma_standard_channel_mapjj, symObjAddr: 0x1E6E0, symBinAddr: 0x60E60, symSize: 0x164 }
  - { offset: 0x37032F, size: 0x8, addend: 0x0, symName: __ZL24ma_data_converter_uninitP17ma_data_converterPK23ma_allocation_callbacks, symObjAddr: 0x41740, symBinAddr: 0x83EC0, symSize: 0xB0 }
  - { offset: 0x37063B, size: 0x8, addend: 0x0, symName: __ZL26ma_decoder__on_read_memoryP10ma_decoderPvmPm, symObjAddr: 0x1E234, symBinAddr: 0x609B4, symSize: 0x98 }
  - { offset: 0x3706BC, size: 0x8, addend: 0x0, symName: __ZL26ma_decoder__on_seek_memoryP10ma_decoderx14ma_seek_origin, symObjAddr: 0x1E2CC, symBinAddr: 0x60A4C, symSize: 0x88 }
  - { offset: 0x3706EC, size: 0x8, addend: 0x0, symName: __ZL31ma_decoder__data_source_on_readPvS_yPy, symObjAddr: 0x1E354, symBinAddr: 0x60AD4, symSize: 0x4 }
  - { offset: 0x370755, size: 0x8, addend: 0x0, symName: __ZL31ma_decoder__data_source_on_readPvS_yPy, symObjAddr: 0x1E354, symBinAddr: 0x60AD4, symSize: 0x4 }
  - { offset: 0x370912, size: 0x8, addend: 0x0, symName: __ZL31ma_decoder__data_source_on_seekPvy, symObjAddr: 0x1E358, symBinAddr: 0x60AD8, symSize: 0x1D8 }
  - { offset: 0x370CA0, size: 0x8, addend: 0x0, symName: __ZL42ma_decoder__data_source_on_get_data_formatPvP9ma_formatPjS2_Phm, symObjAddr: 0x1E530, symBinAddr: 0x60CB0, symSize: 0x130 }
  - { offset: 0x370F1C, size: 0x8, addend: 0x0, symName: __ZL37ma_decoder__data_source_on_get_cursorPvPy, symObjAddr: 0x1E660, symBinAddr: 0x60DE0, symSize: 0x28 }
  - { offset: 0x370F65, size: 0x8, addend: 0x0, symName: __ZL37ma_decoder__data_source_on_get_cursorPvPy, symObjAddr: 0x1E660, symBinAddr: 0x60DE0, symSize: 0x28 }
  - { offset: 0x370F8C, size: 0x8, addend: 0x0, symName: __ZL37ma_decoder__data_source_on_get_lengthPvPy, symObjAddr: 0x1E688, symBinAddr: 0x60E08, symSize: 0x4 }
  - { offset: 0x370FD3, size: 0x8, addend: 0x0, symName: __ZL37ma_decoder__data_source_on_get_lengthPvPy, symObjAddr: 0x1E688, symBinAddr: 0x60E08, symSize: 0x4 }
  - { offset: 0x370FEF, size: 0x8, addend: 0x0, symName: __ZL18ma__malloc_defaultmPv, symObjAddr: 0x1E844, symBinAddr: 0x60FC4, symSize: 0x4 }
  - { offset: 0x371014, size: 0x8, addend: 0x0, symName: __ZL18ma__malloc_defaultmPv, symObjAddr: 0x1E844, symBinAddr: 0x60FC4, symSize: 0x4 }
  - { offset: 0x371028, size: 0x8, addend: 0x0, symName: __ZL19ma__realloc_defaultPvmS_, symObjAddr: 0x1E848, symBinAddr: 0x60FC8, symSize: 0x4 }
  - { offset: 0x371075, size: 0x8, addend: 0x0, symName: __ZL19ma__realloc_defaultPvmS_, symObjAddr: 0x1E848, symBinAddr: 0x60FC8, symSize: 0x4 }
  - { offset: 0x371091, size: 0x8, addend: 0x0, symName: __ZL16ma__free_defaultPvS_, symObjAddr: 0x1E84C, symBinAddr: 0x60FCC, symSize: 0x4 }
  - { offset: 0x3710B6, size: 0x8, addend: 0x0, symName: __ZL16ma__free_defaultPvS_, symObjAddr: 0x1E84C, symBinAddr: 0x60FCC, symSize: 0x4 }
  - { offset: 0x37145F, size: 0x8, addend: 0x0, symName: __ZL29ma_decoding_backend_init__wavPvPF9ma_resultS_S_mPmEPFS0_S_x14ma_seek_originEPFS0_S_PxES_PK26ma_decoding_backend_configPK23ma_allocation_callbacksPS_, symObjAddr: 0x1E850, symBinAddr: 0x60FD0, symSize: 0x2A4 }
  - { offset: 0x371851, size: 0x8, addend: 0x0, symName: __ZL24ma_dr_wav_init__internalP9ma_dr_wavPFyPvPFmS1_S1_mEPFjS1_i21ma_dr_wav_seek_originES1_PK22ma_dr_wav_chunk_header19ma_dr_wav_containerPK13ma_dr_wav_fmtES1_j, symObjAddr: 0x236D8, symBinAddr: 0x65E58, symSize: 0x14B8 }
  - { offset: 0x37354F, size: 0x8, addend: 0x0, symName: __ZL34ma_decoding_backend_init_file__wavPvPKcPK26ma_decoding_backend_configPK23ma_allocation_callbacksPS_, symObjAddr: 0x1EAF4, symBinAddr: 0x61274, symSize: 0x284 }
  - { offset: 0x373A6A, size: 0x8, addend: 0x0, symName: __ZL36ma_decoding_backend_init_file_w__wavPvPKwPK26ma_decoding_backend_configPK23ma_allocation_callbacksPS_, symObjAddr: 0x1ED78, symBinAddr: 0x614F8, symSize: 0x268 }
  - { offset: 0x373E57, size: 0x8, addend: 0x0, symName: __ZL9ma_wfopenPP7__sFILEPKwS3_PK23ma_allocation_callbacks, symObjAddr: 0x24E4C, symBinAddr: 0x675CC, symSize: 0x18C }
  - { offset: 0x374219, size: 0x8, addend: 0x0, symName: __ZL36ma_decoding_backend_init_memory__wavPvPKvmPK26ma_decoding_backend_configPK23ma_allocation_callbacksPS_, symObjAddr: 0x1EFE0, symBinAddr: 0x61760, symSize: 0x25C }
  - { offset: 0x374914, size: 0x8, addend: 0x0, symName: __ZL31ma_decoding_backend_uninit__wavPvS_PK23ma_allocation_callbacks, symObjAddr: 0x1F23C, symBinAddr: 0x619BC, symSize: 0x294 }
  - { offset: 0x374F45, size: 0x8, addend: 0x0, symName: __ZL34ma_dr_wav__write_or_count_metadataP9ma_dr_wavP18ma_dr_wav_metadataj, symObjAddr: 0x250B8, symBinAddr: 0x67838, symSize: 0x2B4 }
  - { offset: 0x375164, size: 0x8, addend: 0x0, symName: __ZL24ma_wav_dr_callback__readPvS_m, symObjAddr: 0x1F4D0, symBinAddr: 0x61C50, symSize: 0x2C }
  - { offset: 0x375209, size: 0x8, addend: 0x0, symName: __ZL24ma_wav_dr_callback__seekPvi21ma_dr_wav_seek_origin, symObjAddr: 0x1F4FC, symBinAddr: 0x61C7C, symSize: 0x38 }
  - { offset: 0x37529B, size: 0x8, addend: 0x0, symName: __ZL24ma_wav_dr_callback__tellPvPx, symObjAddr: 0x1F534, symBinAddr: 0x61CB4, symSize: 0x30 }
  - { offset: 0x3761E9, size: 0x8, addend: 0x0, symName: __ZL14ma_wav_ds_readPvS_yPy, symObjAddr: 0x1F564, symBinAddr: 0x61CE4, symSize: 0x1FA0 }
  - { offset: 0x376FD8, size: 0x8, addend: 0x0, symName: __ZL29ma_dr_wav_read_pcm_frames_s16P9ma_dr_wavyPs, symObjAddr: 0x2189C, symBinAddr: 0x6401C, symSize: 0xDE0 }
  - { offset: 0x377660, size: 0x8, addend: 0x0, symName: __ZL28ma_dr_wav_read_pcm_frames_leP9ma_dr_wavyPv, symObjAddr: 0x23444, symBinAddr: 0x65BC4, symSize: 0x200 }
  - { offset: 0x377829, size: 0x8, addend: 0x0, symName: __ZL25ma_dr_wav_read_pcm_framesP9ma_dr_wavyPv, symObjAddr: 0x2267C, symBinAddr: 0x64DFC, symSize: 0x3A4 }
  - { offset: 0x377BD8, size: 0x8, addend: 0x0, symName: __ZL14ma_wav_ds_seekPvy, symObjAddr: 0x21504, symBinAddr: 0x63C84, symSize: 0x250 }
  - { offset: 0x377DA2, size: 0x8, addend: 0x0, symName: __ZL33ma_dr_wav_seek_to_first_pcm_frameP9ma_dr_wav, symObjAddr: 0x23644, symBinAddr: 0x65DC4, symSize: 0x94 }
  - { offset: 0x377DD4, size: 0x8, addend: 0x0, symName: __ZL25ma_wav_ds_get_data_formatPvP9ma_formatPjS2_Phm, symObjAddr: 0x21754, symBinAddr: 0x63ED4, symSize: 0xF8 }
  - { offset: 0x377F82, size: 0x8, addend: 0x0, symName: __ZL20ma_wav_ds_get_cursorPvPy, symObjAddr: 0x2184C, symBinAddr: 0x63FCC, symSize: 0x28 }
  - { offset: 0x377FC5, size: 0x8, addend: 0x0, symName: __ZL20ma_wav_ds_get_cursorPvPy, symObjAddr: 0x2184C, symBinAddr: 0x63FCC, symSize: 0x28 }
  - { offset: 0x37807F, size: 0x8, addend: 0x0, symName: __ZL20ma_wav_ds_get_lengthPvPy, symObjAddr: 0x21874, symBinAddr: 0x63FF4, symSize: 0x28 }
  - { offset: 0x3780C2, size: 0x8, addend: 0x0, symName: __ZL20ma_wav_ds_get_lengthPvPy, symObjAddr: 0x21874, symBinAddr: 0x63FF4, symSize: 0x28 }
  - { offset: 0x378EAE, size: 0x8, addend: 0x0, symName: __ZL20ma_dr_wav_guid_equalPKhS0_, symObjAddr: 0x24B9C, symBinAddr: 0x6731C, symSize: 0x10C }
  - { offset: 0x378EDE, size: 0x8, addend: 0x0, symName: __ZL30ma_dr_wav_aiff_extented_to_s64PKh, symObjAddr: 0x24D58, symBinAddr: 0x674D8, symSize: 0x6C }
  - { offset: 0x378F6A, size: 0x8, addend: 0x0, symName: __ZL26ma_dr_wav__seek_from_startPFjPvi21ma_dr_wav_seek_originEyS_, symObjAddr: 0x24CA8, symBinAddr: 0x67428, symSize: 0xB0 }
  - { offset: 0x379005, size: 0x8, addend: 0x0, symName: __ZL25ma_dr_wav__malloc_defaultmPv, symObjAddr: 0x24B90, symBinAddr: 0x67310, symSize: 0x4 }
  - { offset: 0x37904A, size: 0x8, addend: 0x0, symName: __ZL25ma_dr_wav__malloc_defaultmPv, symObjAddr: 0x24B90, symBinAddr: 0x67310, symSize: 0x4 }
  - { offset: 0x37905E, size: 0x8, addend: 0x0, symName: __ZL26ma_dr_wav__realloc_defaultPvmS_, symObjAddr: 0x24B94, symBinAddr: 0x67314, symSize: 0x4 }
  - { offset: 0x3790B4, size: 0x8, addend: 0x0, symName: __ZL26ma_dr_wav__realloc_defaultPvmS_, symObjAddr: 0x24B94, symBinAddr: 0x67314, symSize: 0x4 }
  - { offset: 0x3790D0, size: 0x8, addend: 0x0, symName: __ZL23ma_dr_wav__free_defaultPvS_, symObjAddr: 0x24B98, symBinAddr: 0x67318, symSize: 0x4 }
  - { offset: 0x379111, size: 0x8, addend: 0x0, symName: __ZL23ma_dr_wav__free_defaultPvS_, symObjAddr: 0x24B98, symBinAddr: 0x67318, symSize: 0x4 }
  - { offset: 0x379125, size: 0x8, addend: 0x0, symName: __ZL20ma_result_from_errnoi, symObjAddr: 0x24DC4, symBinAddr: 0x67544, symSize: 0x20 }
  - { offset: 0x379156, size: 0x8, addend: 0x0, symName: __ZL24ma_dr_wav__on_read_stdioPvS_m, symObjAddr: 0x24DE4, symBinAddr: 0x67564, symSize: 0x10 }
  - { offset: 0x3791DC, size: 0x8, addend: 0x0, symName: __ZL24ma_dr_wav__on_seek_stdioPvi21ma_dr_wav_seek_origin, symObjAddr: 0x24DF4, symBinAddr: 0x67574, symSize: 0x30 }
  - { offset: 0x379261, size: 0x8, addend: 0x0, symName: __ZL24ma_dr_wav__on_tell_stdioPvPx, symObjAddr: 0x24E24, symBinAddr: 0x675A4, symSize: 0x28 }
  - { offset: 0x379313, size: 0x8, addend: 0x0, symName: __ZL25ma_dr_wav__on_read_memoryPvS_m, symObjAddr: 0x24FD8, symBinAddr: 0x67758, symSize: 0x58 }
  - { offset: 0x379394, size: 0x8, addend: 0x0, symName: __ZL25ma_dr_wav__on_seek_memoryPvi21ma_dr_wav_seek_origin, symObjAddr: 0x25030, symBinAddr: 0x677B0, symSize: 0x68 }
  - { offset: 0x379411, size: 0x8, addend: 0x0, symName: __ZL25ma_dr_wav__on_tell_memoryPvPx, symObjAddr: 0x25098, symBinAddr: 0x67818, symSize: 0x10 }
  - { offset: 0x37946A, size: 0x8, addend: 0x0, symName: __ZL25ma_dr_wav__on_write_stdioPvPKvm, symObjAddr: 0x250A8, symBinAddr: 0x67828, symSize: 0x10 }
  - { offset: 0x3795CA, size: 0x8, addend: 0x0, symName: __ZL30ma_decoding_backend_init__flacPvPF9ma_resultS_S_mPmEPFS0_S_x14ma_seek_originEPFS0_S_PxES_PK26ma_decoding_backend_configPK23ma_allocation_callbacksPS_, symObjAddr: 0x2536C, symBinAddr: 0x67AEC, symSize: 0x170 }
  - { offset: 0x379882, size: 0x8, addend: 0x0, symName: __ZL15ma_dr_flac_openPFmPvS_mEPFjS_i22ma_dr_flac_seek_originEPFjS_PxES_PK23ma_allocation_callbacks, symObjAddr: 0x25A98, symBinAddr: 0x68218, symSize: 0xCF8 }
  - { offset: 0x37A663, size: 0x8, addend: 0x0, symName: __ZL35ma_decoding_backend_init_file__flacPvPKcPK26ma_decoding_backend_configPK23ma_allocation_callbacksPS_, symObjAddr: 0x254DC, symBinAddr: 0x67C5C, symSize: 0x190 }
  - { offset: 0x37A9F2, size: 0x8, addend: 0x0, symName: __ZL37ma_decoding_backend_init_file_w__flacPvPKwPK26ma_decoding_backend_configPK23ma_allocation_callbacksPS_, symObjAddr: 0x2566C, symBinAddr: 0x67DEC, symSize: 0x1A4 }
  - { offset: 0x37ADA3, size: 0x8, addend: 0x0, symName: __ZL37ma_decoding_backend_init_memory__flacPvPKvmPK26ma_decoding_backend_configPK23ma_allocation_callbacksPS_, symObjAddr: 0x25810, symBinAddr: 0x67F90, symSize: 0x1B8 }
  - { offset: 0x37B116, size: 0x8, addend: 0x0, symName: __ZL32ma_decoding_backend_uninit__flacPvS_PK23ma_allocation_callbacks, symObjAddr: 0x259C8, symBinAddr: 0x68148, symSize: 0xD0 }
  - { offset: 0x37BF78, size: 0x8, addend: 0x0, symName: __ZL54ma_dr_flac_ogg__read_page_header_after_capture_patternPFmPvS_mES_P26ma_dr_flac_ogg_page_headerPjS4_, symObjAddr: 0x36CC0, symBinAddr: 0x79440, symSize: 0x2B8 }
  - { offset: 0x37C09F, size: 0x8, addend: 0x0, symName: __ZL27ma_dr_flac__read_streaminfoPFmPvS_mES_P21ma_dr_flac_streaminfo, symObjAddr: 0x386D8, symBinAddr: 0x7AE58, symSize: 0x140 }
  - { offset: 0x37C23D, size: 0x8, addend: 0x0, symName: __ZL29ma_dr_flac__decode_flac_frameP10ma_dr_flac, symObjAddr: 0x2C088, symBinAddr: 0x6E808, symSize: 0x8F4 }
  - { offset: 0x37CB32, size: 0x8, addend: 0x0, symName: __ZL39ma_dr_flac__read_next_flac_frame_headerP13ma_dr_flac_bshP23ma_dr_flac_frame_header, symObjAddr: 0x2B538, symBinAddr: 0x6DCB8, symSize: 0xB50 }
  - { offset: 0x37D9C9, size: 0x8, addend: 0x0, symName: __ZL25ma_flac_dr_callback__readPvS_m, symObjAddr: 0x26790, symBinAddr: 0x68F10, symSize: 0x2C }
  - { offset: 0x37DA6E, size: 0x8, addend: 0x0, symName: __ZL25ma_flac_dr_callback__seekPvi22ma_dr_flac_seek_origin, symObjAddr: 0x267BC, symBinAddr: 0x68F3C, symSize: 0x38 }
  - { offset: 0x37DB00, size: 0x8, addend: 0x0, symName: __ZL25ma_flac_dr_callback__tellPvPx, symObjAddr: 0x267F4, symBinAddr: 0x68F74, symSize: 0x30 }
  - { offset: 0x3812CE, size: 0x8, addend: 0x0, symName: __ZL15ma_flac_ds_readPvS_yPy, symObjAddr: 0x26824, symBinAddr: 0x68FA4, symSize: 0x4B90 }
  - { offset: 0x383484, size: 0x8, addend: 0x0, symName: __ZL15ma_flac_ds_seekPvy, symObjAddr: 0x2B3B4, symBinAddr: 0x6DB34, symSize: 0x28 }
  - { offset: 0x3834C9, size: 0x8, addend: 0x0, symName: __ZL15ma_flac_ds_seekPvy, symObjAddr: 0x2B3B4, symBinAddr: 0x6DB34, symSize: 0x28 }
  - { offset: 0x38351C, size: 0x8, addend: 0x0, symName: __ZL28ma_dr_flac_seek_to_pcm_frameP10ma_dr_flacy, symObjAddr: 0x35744, symBinAddr: 0x77EC4, symSize: 0x5EC }
  - { offset: 0x383C13, size: 0x8, addend: 0x0, symName: __ZL26ma_flac_ds_get_data_formatPvP9ma_formatPjS2_Phm, symObjAddr: 0x2B3DC, symBinAddr: 0x6DB5C, symSize: 0x104 }
  - { offset: 0x383D7F, size: 0x8, addend: 0x0, symName: __ZL21ma_flac_ds_get_cursorPvPy, symObjAddr: 0x2B4E0, symBinAddr: 0x6DC60, symSize: 0x2C }
  - { offset: 0x383DC2, size: 0x8, addend: 0x0, symName: __ZL21ma_flac_ds_get_cursorPvPy, symObjAddr: 0x2B4E0, symBinAddr: 0x6DC60, symSize: 0x2C }
  - { offset: 0x383E12, size: 0x8, addend: 0x0, symName: __ZL21ma_flac_ds_get_lengthPvPy, symObjAddr: 0x2B50C, symBinAddr: 0x6DC8C, symSize: 0x2C }
  - { offset: 0x383E55, size: 0x8, addend: 0x0, symName: __ZL21ma_flac_ds_get_lengthPvPy, symObjAddr: 0x2B50C, symBinAddr: 0x6DC8C, symSize: 0x2C }
  - { offset: 0x384047, size: 0x8, addend: 0x0, symName: __ZL21ma_dr_flac__seek_bitsP13ma_dr_flac_bsm, symObjAddr: 0x2CE68, symBinAddr: 0x6F5E8, symSize: 0x29C }
  - { offset: 0x384300, size: 0x8, addend: 0x0, symName: __ZL24ma_dr_flac__reload_cacheP13ma_dr_flac_bs, symObjAddr: 0x2D104, symBinAddr: 0x6F884, symSize: 0x370 }
  - { offset: 0x38467D, size: 0x8, addend: 0x0, symName: __ZL34ma_dr_flac__read_utf8_coded_numberP13ma_dr_flac_bsPyPh, symObjAddr: 0x2CA94, symBinAddr: 0x6F214, symSize: 0x2BC }
  - { offset: 0x384935, size: 0x8, addend: 0x0, symName: __ZL23ma_dr_flac__read_uint16P13ma_dr_flac_bsjPt, symObjAddr: 0x2CD50, symBinAddr: 0x6F4D0, symSize: 0x118 }
  - { offset: 0x3849EC, size: 0x8, addend: 0x0, symName: __ZL22ma_dr_flac__read_uint8P13ma_dr_flac_bsjPh, symObjAddr: 0x2C97C, symBinAddr: 0x6F0FC, symSize: 0x118 }
  - { offset: 0x384ED0, size: 0x8, addend: 0x0, symName: __ZL40ma_dr_flac__decode_samples_with_residualP13ma_dr_flac_bsjjjijPKiPi, symObjAddr: 0x2D810, symBinAddr: 0x6FF90, symSize: 0x924 }
  - { offset: 0x385576, size: 0x8, addend: 0x0, symName: __ZL32ma_dr_flac__read_subframe_headerP13ma_dr_flac_bsP19ma_dr_flac_subframe, symObjAddr: 0x2D474, symBinAddr: 0x6FBF4, symSize: 0x268 }
  - { offset: 0x38572E, size: 0x8, addend: 0x0, symName: __ZL22ma_dr_flac__read_int32P13ma_dr_flac_bsjPi, symObjAddr: 0x2D6DC, symBinAddr: 0x6FE5C, symSize: 0x134 }
  - { offset: 0x385B9D, size: 0x8, addend: 0x0, symName: __ZL52ma_dr_flac__decode_samples_with_residual__rice__neonP13ma_dr_flac_bsjjhjijPKiPi, symObjAddr: 0x2E134, symBinAddr: 0x708B4, symSize: 0x3780 }
  - { offset: 0x38A176, size: 0x8, addend: 0x0, symName: __ZL54ma_dr_flac__decode_samples_with_residual__rice__scalarP13ma_dr_flac_bsjjhjijPKiPi, symObjAddr: 0x318B4, symBinAddr: 0x74034, symSize: 0x3E90 }
  - { offset: 0x38ED9D, size: 0x8, addend: 0x0, symName: __ZL41ma_dr_flac__seek_to_pcm_frame__seek_tableP10ma_dr_flacy, symObjAddr: 0x35D30, symBinAddr: 0x784B0, symSize: 0x53C }
  - { offset: 0x38F1F2, size: 0x8, addend: 0x0, symName: __ZL44ma_dr_flac__seek_to_pcm_frame__binary_searchP10ma_dr_flacy, symObjAddr: 0x3626C, symBinAddr: 0x789EC, symSize: 0x204 }
  - { offset: 0x38F3F2, size: 0x8, addend: 0x0, symName: __ZL42ma_dr_flac__seek_to_pcm_frame__brute_forceP10ma_dr_flacy, symObjAddr: 0x36470, symBinAddr: 0x78BF0, symSize: 0x414 }
  - { offset: 0x38F7FF, size: 0x8, addend: 0x0, symName: __ZL32ma_dr_flac_oggbs__goto_next_pageP16ma_dr_flac_oggbs36ma_dr_flac_ogg_crc_mismatch_recovery, symObjAddr: 0x3694C, symBinAddr: 0x790CC, symSize: 0x374 }
  - { offset: 0x38FAEC, size: 0x8, addend: 0x0, symName: __ZL27ma_dr_flac__seek_flac_frameP10ma_dr_flac, symObjAddr: 0x36F78, symBinAddr: 0x796F8, symSize: 0x658 }
  - { offset: 0x3901B4, size: 0x8, addend: 0x0, symName: __ZL24ma_dr_flac__seek_to_byteP13ma_dr_flac_bsy, symObjAddr: 0x36884, symBinAddr: 0x79004, symSize: 0xC8 }
  - { offset: 0x39026C, size: 0x8, addend: 0x0, symName: __ZL53ma_dr_flac__seek_to_pcm_frame__binary_search_internalP10ma_dr_flacyyy, symObjAddr: 0x37E4C, symBinAddr: 0x7A5CC, symSize: 0x3D8 }
  - { offset: 0x390908, size: 0x8, addend: 0x0, symName: __ZL34ma_dr_flac__read_and_seek_residualP13ma_dr_flac_bsjj, symObjAddr: 0x375D0, symBinAddr: 0x79D50, symSize: 0x87C }
  - { offset: 0x39142F, size: 0x8, addend: 0x0, symName: __ZL50ma_dr_flac__seek_to_approximate_flac_frame_to_byteP10ma_dr_flacyyyPy, symObjAddr: 0x38224, symBinAddr: 0x7A9A4, symSize: 0x240 }
  - { offset: 0x3916ED, size: 0x8, addend: 0x0, symName: __ZL26ma_dr_flac__malloc_defaultmPv, symObjAddr: 0x38464, symBinAddr: 0x7ABE4, symSize: 0x4 }
  - { offset: 0x391732, size: 0x8, addend: 0x0, symName: __ZL26ma_dr_flac__malloc_defaultmPv, symObjAddr: 0x38464, symBinAddr: 0x7ABE4, symSize: 0x4 }
  - { offset: 0x391746, size: 0x8, addend: 0x0, symName: __ZL27ma_dr_flac__realloc_defaultPvmS_, symObjAddr: 0x38468, symBinAddr: 0x7ABE8, symSize: 0x4 }
  - { offset: 0x39179C, size: 0x8, addend: 0x0, symName: __ZL27ma_dr_flac__realloc_defaultPvmS_, symObjAddr: 0x38468, symBinAddr: 0x7ABE8, symSize: 0x4 }
  - { offset: 0x3917B8, size: 0x8, addend: 0x0, symName: __ZL24ma_dr_flac__free_defaultPvS_, symObjAddr: 0x3846C, symBinAddr: 0x7ABEC, symSize: 0x4 }
  - { offset: 0x3917F9, size: 0x8, addend: 0x0, symName: __ZL24ma_dr_flac__free_defaultPvS_, symObjAddr: 0x3846C, symBinAddr: 0x7ABEC, symSize: 0x4 }
  - { offset: 0x39180D, size: 0x8, addend: 0x0, symName: __ZL23ma_dr_flac__on_read_oggPvS_m, symObjAddr: 0x38470, symBinAddr: 0x7ABF0, symSize: 0xBC }
  - { offset: 0x391949, size: 0x8, addend: 0x0, symName: __ZL23ma_dr_flac__on_seek_oggPvi22ma_dr_flac_seek_origin, symObjAddr: 0x3852C, symBinAddr: 0x7ACAC, symSize: 0x1A4 }
  - { offset: 0x391AE6, size: 0x8, addend: 0x0, symName: __ZL23ma_dr_flac__on_tell_oggPvPx, symObjAddr: 0x386D0, symBinAddr: 0x7AE50, symSize: 0x8 }
  - { offset: 0x391B26, size: 0x8, addend: 0x0, symName: __ZL25ma_dr_flac__on_read_stdioPvS_m, symObjAddr: 0x38818, symBinAddr: 0x7AF98, symSize: 0x10 }
  - { offset: 0x391BAC, size: 0x8, addend: 0x0, symName: __ZL25ma_dr_flac__on_seek_stdioPvi22ma_dr_flac_seek_origin, symObjAddr: 0x38828, symBinAddr: 0x7AFA8, symSize: 0x30 }
  - { offset: 0x391C31, size: 0x8, addend: 0x0, symName: __ZL25ma_dr_flac__on_tell_stdioPvPx, symObjAddr: 0x38858, symBinAddr: 0x7AFD8, symSize: 0x28 }
  - { offset: 0x391CB6, size: 0x8, addend: 0x0, symName: __ZL26ma_dr_flac__on_read_memoryPvS_m, symObjAddr: 0x38880, symBinAddr: 0x7B000, symSize: 0x58 }
  - { offset: 0x391D37, size: 0x8, addend: 0x0, symName: __ZL26ma_dr_flac__on_seek_memoryPvi22ma_dr_flac_seek_origin, symObjAddr: 0x388D8, symBinAddr: 0x7B058, symSize: 0x68 }
  - { offset: 0x391DB4, size: 0x8, addend: 0x0, symName: __ZL26ma_dr_flac__on_tell_memoryPvPx, symObjAddr: 0x38940, symBinAddr: 0x7B0C0, symSize: 0x10 }
  - { offset: 0x3924B0, size: 0x8, addend: 0x0, symName: __ZL29ma_decoding_backend_init__mp3PvPF9ma_resultS_S_mPmEPFS0_S_x14ma_seek_originEPFS0_S_PxES_PK26ma_decoding_backend_configPK23ma_allocation_callbacksPS_, symObjAddr: 0x38950, symBinAddr: 0x7B0D0, symSize: 0x6B4 }
  - { offset: 0x392E7D, size: 0x8, addend: 0x0, symName: __ZL30ma_dr_mp3_decode_next_frame_exP9ma_dr_mp3PsP23ma_dr_mp3dec_frame_infoPPKh, symObjAddr: 0x3A104, symBinAddr: 0x7C884, symSize: 0x490 }
  - { offset: 0x393329, size: 0x8, addend: 0x0, symName: __ZL16ma_mp3_post_initP6ma_mp3PK26ma_decoding_backend_configPK23ma_allocation_callbacks, symObjAddr: 0x39614, symBinAddr: 0x7BD94, symSize: 0x528 }
  - { offset: 0x393B11, size: 0x8, addend: 0x0, symName: __ZL34ma_decoding_backend_init_file__mp3PvPKcPK26ma_decoding_backend_configPK23ma_allocation_callbacksPS_, symObjAddr: 0x39004, symBinAddr: 0x7B784, symSize: 0x1B0 }
  - { offset: 0x393E91, size: 0x8, addend: 0x0, symName: __ZL23ma_dr_mp3_init_internalP9ma_dr_mp3PFmPvS1_mEPFjS1_i21ma_dr_mp3_seek_originEPFjS1_PxEPFvS1_PK18ma_dr_mp3_metadataES1_S1_PK23ma_allocation_callbacks, symObjAddr: 0x41068, symBinAddr: 0x837E8, symSize: 0x590 }
  - { offset: 0x39448E, size: 0x8, addend: 0x0, symName: __ZL36ma_decoding_backend_init_file_w__mp3PvPKwPK26ma_decoding_backend_configPK23ma_allocation_callbacksPS_, symObjAddr: 0x391B4, symBinAddr: 0x7B934, symSize: 0x1A4 }
  - { offset: 0x39492C, size: 0x8, addend: 0x0, symName: __ZL36ma_decoding_backend_init_memory__mp3PvPKvmPK26ma_decoding_backend_configPK23ma_allocation_callbacksPS_, symObjAddr: 0x39358, symBinAddr: 0x7BAD8, symSize: 0x1A0 }
  - { offset: 0x394CBF, size: 0x8, addend: 0x0, symName: __ZL31ma_decoding_backend_uninit__mp3PvS_PK23ma_allocation_callbacks, symObjAddr: 0x394F8, symBinAddr: 0x7BC78, symSize: 0xB4 }
  - { offset: 0x394E87, size: 0x8, addend: 0x0, symName: __ZL24ma_mp3_dr_callback__readPvS_m, symObjAddr: 0x395AC, symBinAddr: 0x7BD2C, symSize: 0x2C }
  - { offset: 0x394EF8, size: 0x8, addend: 0x0, symName: __ZL24ma_mp3_dr_callback__seekPvi21ma_dr_mp3_seek_origin, symObjAddr: 0x395D8, symBinAddr: 0x7BD58, symSize: 0x3C }
  - { offset: 0x395298, size: 0x8, addend: 0x0, symName: __ZL37ma_dr_mp3_get_mp3_and_pcm_frame_countP9ma_dr_mp3PyS1_, symObjAddr: 0x40E2C, symBinAddr: 0x835AC, symSize: 0x23C }
  - { offset: 0x3956FD, size: 0x8, addend: 0x0, symName: __ZL27ma_dr_mp3_seek_to_pcm_frameP9ma_dr_mp3y, symObjAddr: 0x40A74, symBinAddr: 0x831F4, symSize: 0x3B8 }
  - { offset: 0x395FF9, size: 0x8, addend: 0x0, symName: __ZL14ma_mp3_ds_readPvS_yPy, symObjAddr: 0x39B3C, symBinAddr: 0x7C2BC, symSize: 0x288 }
  - { offset: 0x396207, size: 0x8, addend: 0x0, symName: __ZL29ma_dr_mp3_read_pcm_frames_rawP9ma_dr_mp3yPv, symObjAddr: 0x39FAC, symBinAddr: 0x7C72C, symSize: 0x158 }
  - { offset: 0x396389, size: 0x8, addend: 0x0, symName: __ZL14ma_mp3_ds_seekPvy, symObjAddr: 0x39DC4, symBinAddr: 0x7C544, symSize: 0x28 }
  - { offset: 0x3963CE, size: 0x8, addend: 0x0, symName: __ZL14ma_mp3_ds_seekPvy, symObjAddr: 0x39DC4, symBinAddr: 0x7C544, symSize: 0x28 }
  - { offset: 0x396421, size: 0x8, addend: 0x0, symName: __ZL25ma_mp3_ds_get_data_formatPvP9ma_formatPjS2_Phm, symObjAddr: 0x39DEC, symBinAddr: 0x7C56C, symSize: 0xFC }
  - { offset: 0x396568, size: 0x8, addend: 0x0, symName: __ZL20ma_mp3_ds_get_cursorPvPy, symObjAddr: 0x39EE8, symBinAddr: 0x7C668, symSize: 0x28 }
  - { offset: 0x3965AB, size: 0x8, addend: 0x0, symName: __ZL20ma_mp3_ds_get_cursorPvPy, symObjAddr: 0x39EE8, symBinAddr: 0x7C668, symSize: 0x28 }
  - { offset: 0x39662E, size: 0x8, addend: 0x0, symName: __ZL20ma_mp3_ds_get_lengthPvPy, symObjAddr: 0x39F10, symBinAddr: 0x7C690, symSize: 0x9C }
  - { offset: 0x396975, size: 0x8, addend: 0x0, symName: __ZL25ma_dr_mp3dec_decode_frameP12ma_dr_mp3decPKhiPvP23ma_dr_mp3dec_frame_info, symObjAddr: 0x3A594, symBinAddr: 0x7CD14, symSize: 0x460C }
  - { offset: 0x399393, size: 0x8, addend: 0x0, symName: __ZL24ma_dr_mp3d_synth_granulePfS_iiPsS_, symObjAddr: 0x3F52C, symBinAddr: 0x81CAC, symSize: 0xF6C }
  - { offset: 0x39A0C7, size: 0x8, addend: 0x0, symName: __ZL21ma_dr_mp3d_synth_pairPsiPKf, symObjAddr: 0x4086C, symBinAddr: 0x82FEC, symSize: 0x208 }
  - { offset: 0x39A3E4, size: 0x8, addend: 0x0, symName: __ZL25ma_dr_mp3__malloc_defaultmPv, symObjAddr: 0x415F8, symBinAddr: 0x83D78, symSize: 0x4 }
  - { offset: 0x39A429, size: 0x8, addend: 0x0, symName: __ZL25ma_dr_mp3__malloc_defaultmPv, symObjAddr: 0x415F8, symBinAddr: 0x83D78, symSize: 0x4 }
  - { offset: 0x39A43D, size: 0x8, addend: 0x0, symName: __ZL26ma_dr_mp3__realloc_defaultPvmS_, symObjAddr: 0x415FC, symBinAddr: 0x83D7C, symSize: 0x4 }
  - { offset: 0x39A493, size: 0x8, addend: 0x0, symName: __ZL26ma_dr_mp3__realloc_defaultPvmS_, symObjAddr: 0x415FC, symBinAddr: 0x83D7C, symSize: 0x4 }
  - { offset: 0x39A4AF, size: 0x8, addend: 0x0, symName: __ZL23ma_dr_mp3__free_defaultPvS_, symObjAddr: 0x41600, symBinAddr: 0x83D80, symSize: 0x4 }
  - { offset: 0x39A4F0, size: 0x8, addend: 0x0, symName: __ZL23ma_dr_mp3__free_defaultPvS_, symObjAddr: 0x41600, symBinAddr: 0x83D80, symSize: 0x4 }
  - { offset: 0x39A504, size: 0x8, addend: 0x0, symName: __ZL24ma_dr_mp3__on_read_stdioPvS_m, symObjAddr: 0x41604, symBinAddr: 0x83D84, symSize: 0x10 }
  - { offset: 0x39A58A, size: 0x8, addend: 0x0, symName: __ZL24ma_dr_mp3__on_seek_stdioPvi21ma_dr_mp3_seek_origin, symObjAddr: 0x41614, symBinAddr: 0x83D94, symSize: 0x30 }
  - { offset: 0x39A60F, size: 0x8, addend: 0x0, symName: __ZL24ma_dr_mp3__on_tell_stdioPvPx, symObjAddr: 0x41644, symBinAddr: 0x83DC4, symSize: 0x28 }
  - { offset: 0x39A694, size: 0x8, addend: 0x0, symName: __ZL25ma_dr_mp3__on_read_memoryPvS_m, symObjAddr: 0x4166C, symBinAddr: 0x83DEC, symSize: 0x5C }
  - { offset: 0x39A715, size: 0x8, addend: 0x0, symName: __ZL25ma_dr_mp3__on_seek_memoryPvi21ma_dr_mp3_seek_origin, symObjAddr: 0x416C8, symBinAddr: 0x83E48, symSize: 0x68 }
  - { offset: 0x39A792, size: 0x8, addend: 0x0, symName: __ZL25ma_dr_mp3__on_tell_memoryPvPx, symObjAddr: 0x41730, symBinAddr: 0x83EB0, symSize: 0x10 }
  - { offset: 0x39ACE1, size: 0x8, addend: 0x0, symName: __ZL43ma_resampling_backend_get_heap_size__linearPvPK19ma_resampler_configPm, symObjAddr: 0x41EA0, symBinAddr: 0x84620, symSize: 0x88 }
  - { offset: 0x39AD3F, size: 0x8, addend: 0x0, symName: __ZL43ma_resampling_backend_get_heap_size__linearPvPK19ma_resampler_configPm, symObjAddr: 0x41EA0, symBinAddr: 0x84620, symSize: 0x88 }
  - { offset: 0x39AEC1, size: 0x8, addend: 0x0, symName: __ZL34ma_resampling_backend_init__linearPvPK19ma_resampler_configS_PS_, symObjAddr: 0x41F28, symBinAddr: 0x846A8, symSize: 0x14C }
  - { offset: 0x39B113, size: 0x8, addend: 0x0, symName: __ZL37ma_linear_resampler_set_rate_internalP19ma_linear_resamplerPvP31ma_linear_resampler_heap_layoutjjj, symObjAddr: 0x42E64, symBinAddr: 0x855E4, symSize: 0x140 }
  - { offset: 0x39B40D, size: 0x8, addend: 0x0, symName: __ZL36ma_resampling_backend_uninit__linearPvS_PK23ma_allocation_callbacks, symObjAddr: 0x42074, symBinAddr: 0x847F4, symSize: 0x1CC }
  - { offset: 0x39BF69, size: 0x8, addend: 0x0, symName: __ZL37ma_resampling_backend_process__linearPvS_PKvPyS_S2_, symObjAddr: 0x42240, symBinAddr: 0x849C0, symSize: 0xA10 }
  - { offset: 0x39CBF0, size: 0x8, addend: 0x0, symName: __ZL38ma_resampling_backend_set_rate__linearPvS_jj, symObjAddr: 0x42C50, symBinAddr: 0x853D0, symSize: 0x1C }
  - { offset: 0x39CCFD, size: 0x8, addend: 0x0, symName: __ZL47ma_resampling_backend_get_input_latency__linearPvPKv, symObjAddr: 0x42C6C, symBinAddr: 0x853EC, symSize: 0x1C }
  - { offset: 0x39CD3B, size: 0x8, addend: 0x0, symName: __ZL47ma_resampling_backend_get_input_latency__linearPvPKv, symObjAddr: 0x42C6C, symBinAddr: 0x853EC, symSize: 0x1C }
  - { offset: 0x39CD8B, size: 0x8, addend: 0x0, symName: __ZL48ma_resampling_backend_get_output_latency__linearPvPKv, symObjAddr: 0x42C88, symBinAddr: 0x85408, symSize: 0x28 }
  - { offset: 0x39CDC9, size: 0x8, addend: 0x0, symName: __ZL48ma_resampling_backend_get_output_latency__linearPvPKv, symObjAddr: 0x42C88, symBinAddr: 0x85408, symSize: 0x28 }
  - { offset: 0x39CE5B, size: 0x8, addend: 0x0, symName: __ZL60ma_resampling_backend_get_required_input_frame_count__linearPvPKvyPy, symObjAddr: 0x42CB0, symBinAddr: 0x85430, symSize: 0x44 }
  - { offset: 0x39CEB7, size: 0x8, addend: 0x0, symName: __ZL60ma_resampling_backend_get_required_input_frame_count__linearPvPKvyPy, symObjAddr: 0x42CB0, symBinAddr: 0x85430, symSize: 0x44 }
  - { offset: 0x39CF48, size: 0x8, addend: 0x0, symName: __ZL61ma_resampling_backend_get_expected_output_frame_count__linearPvPKvyPy, symObjAddr: 0x42CF4, symBinAddr: 0x85474, symSize: 0x4C }
  - { offset: 0x39CFA4, size: 0x8, addend: 0x0, symName: __ZL61ma_resampling_backend_get_expected_output_frame_count__linearPvPKvyPy, symObjAddr: 0x42CF4, symBinAddr: 0x85474, symSize: 0x4C }
  - { offset: 0x39D0AA, size: 0x8, addend: 0x0, symName: __ZL35ma_resampling_backend_reset__linearPvS_, symObjAddr: 0x42D40, symBinAddr: 0x854C0, symSize: 0x124 }
  - { offset: 0x39D26C, size: 0x8, addend: 0x0, symName: __ZL23ma_lpf_reinit__internalPK13ma_lpf_configPvP6ma_lpfj, symObjAddr: 0x42FA4, symBinAddr: 0x85724, symSize: 0x70C }
  - { offset: 0x39DEAA, size: 0x8, addend: 0x0, symName: __ZL26ma_decoder__on_tell_memoryP10ma_decoderPx, symObjAddr: 0x436B0, symBinAddr: 0x85E30, symSize: 0x10 }
  - { offset: 0x39DF33, size: 0x8, addend: 0x0, symName: __ZL35ma_decoder_internal_on_read__customPvS_mPm, symObjAddr: 0x436C0, symBinAddr: 0x85E40, symSize: 0x8 }
  - { offset: 0x39DFA1, size: 0x8, addend: 0x0, symName: __ZL35ma_decoder_internal_on_read__customPvS_mPm, symObjAddr: 0x436C0, symBinAddr: 0x85E40, symSize: 0x8 }
  - { offset: 0x39DFFE, size: 0x8, addend: 0x0, symName: __ZL35ma_decoder_internal_on_seek__customPvx14ma_seek_origin, symObjAddr: 0x436C8, symBinAddr: 0x85E48, symSize: 0x8 }
  - { offset: 0x39E05D, size: 0x8, addend: 0x0, symName: __ZL35ma_decoder_internal_on_seek__customPvx14ma_seek_origin, symObjAddr: 0x436C8, symBinAddr: 0x85E48, symSize: 0x8 }
  - { offset: 0x39E0D6, size: 0x8, addend: 0x0, symName: __ZL35ma_decoder_internal_on_tell__customPvPx, symObjAddr: 0x436D0, symBinAddr: 0x85E50, symSize: 0x14 }
  - { offset: 0x39E12A, size: 0x8, addend: 0x0, symName: __ZL35ma_decoder_internal_on_tell__customPvPx, symObjAddr: 0x436D0, symBinAddr: 0x85E50, symSize: 0x14 }
  - { offset: 0x39E2C4, size: 0x8, addend: 0x0, symName: __ZL23ma_decoder__on_read_vfsP10ma_decoderPvmPm, symObjAddr: 0x436E4, symBinAddr: 0x85E64, symSize: 0x140 }
  - { offset: 0x39E846, size: 0x8, addend: 0x0, symName: __ZL30ma_data_source_read_pcm_framesPvS_yPy, symObjAddr: 0x43950, symBinAddr: 0x85FA4, symSize: 0x268 }
  - { offset: 0x39E8BE, size: 0x8, addend: 0x0, symName: __ZL43ma_data_source_read_pcm_frames_within_rangePvS_yPy, symObjAddr: 0x446D0, symBinAddr: 0x86D24, symSize: 0x324 }
  - { offset: 0x39F528, size: 0x8, addend: 0x0, symName: __ZL28ma_convert_pcm_frames_formatPv9ma_formatPKvS0_yj14ma_dither_mode, symObjAddr: 0x449F4, symBinAddr: 0x87048, symSize: 0x1508 }
  - { offset: 0x3A021D, size: 0x8, addend: 0x0, symName: __ZL39ma_channel_converter_process_pcm_framesP20ma_channel_converterPvPKvy, symObjAddr: 0x47B14, symBinAddr: 0x8A168, symSize: 0x1718 }
  - { offset: 0x3A1A84, size: 0x8, addend: 0x0, symName: __ZL17ma_pcm_f32_to_s16PvPKvy14ma_dither_mode, symObjAddr: 0x47058, symBinAddr: 0x896AC, symSize: 0xABC }
  - { offset: 0x3A33A7, size: 0x8, addend: 0x0, symName: __ZL17ma_pcm_s24_to_s16PvPKvy14ma_dither_mode, symObjAddr: 0x46338, symBinAddr: 0x8898C, symSize: 0x3A4 }
  - { offset: 0x3A36F8, size: 0x8, addend: 0x0, symName: __ZL17ma_pcm_s32_to_s16PvPKvy14ma_dither_mode, symObjAddr: 0x46A98, symBinAddr: 0x890EC, symSize: 0x274 }
  - { offset: 0x3A3A40, size: 0x8, addend: 0x0, symName: __ZL16ma_pcm_s24_to_u8PvPKvy14ma_dither_mode, symObjAddr: 0x461F0, symBinAddr: 0x88844, symSize: 0x148 }
  - { offset: 0x3A3DA8, size: 0x8, addend: 0x0, symName: __ZL16ma_pcm_s32_to_u8PvPKvy14ma_dither_mode, symObjAddr: 0x466DC, symBinAddr: 0x88D30, symSize: 0x3BC }
  - { offset: 0x3A411E, size: 0x8, addend: 0x0, symName: __ZL16ma_pcm_f32_to_u8PvPKvy14ma_dither_mode, symObjAddr: 0x46D0C, symBinAddr: 0x89360, symSize: 0x34C }
  - { offset: 0x3A4482, size: 0x8, addend: 0x0, symName: __ZL16ma_pcm_s16_to_u8PvPKvy14ma_dither_mode, symObjAddr: 0x45EFC, symBinAddr: 0x88550, symSize: 0x2F4 }
  - { offset: 0x3A7947, size: 0x8, addend: 0x0, symName: __ZL20PROJECTOR_TYPE_NAMES, symObjAddr: 0xD8F60, symBinAddr: 0xB4D58, symSize: 0x0 }
  - { offset: 0x3B482D, size: 0x8, addend: 0x0, symName: '__ZNSt3__111__introsortINS_17_ClassicAlgPolicyERZN28mtmd_image_preprocessor_lfm217get_target_ratiosEvE3$_0P15clip_image_sizeLb0EEEvT1_S7_T0_NS_15iterator_traitsIS7_E15difference_typeEb', symObjAddr: 0x7CC4, symBinAddr: 0x92BDC, symSize: 0xB2C }
  - { offset: 0x3B64A7, size: 0x8, addend: 0x0, symName: '__ZNSt3__127__insertion_sort_incompleteB9nqe210106INS_17_ClassicAlgPolicyERZN28mtmd_image_preprocessor_lfm217get_target_ratiosEvE3$_0P15clip_image_sizeEEbT1_S7_T0_', symObjAddr: 0x8984, symBinAddr: 0x9389C, symSize: 0x354 }
  - { offset: 0x3B8F86, size: 0x8, addend: 0x0, symName: '__ZNSt3__17__sort4B9nqe210106INS_17_ClassicAlgPolicyERZN28mtmd_image_preprocessor_lfm217get_target_ratiosEvE3$_0P15clip_image_sizeLi0EEEvT1_S7_S7_S7_T0_', symObjAddr: 0x87F0, symBinAddr: 0x93708, symSize: 0x194 }
  - { offset: 0x3BA76A, size: 0x8, addend: 0x0, symName: __ZTV33mtmd_image_preprocessor_llava_uhd, symObjAddr: 0xA140, symBinAddr: 0xB1020, symSize: 0x0 }
  - { offset: 0x3BB568, size: 0x8, addend: 0x0, symName: __ZTV34mtmd_image_preprocessor_fixed_size, symObjAddr: 0xA198, symBinAddr: 0xB1078, symSize: 0x0 }
  - { offset: 0x3BB5F9, size: 0x8, addend: 0x0, symName: __ZTV32mtmd_image_preprocessor_dyn_size, symObjAddr: 0xA1D8, symBinAddr: 0xB10B8, symSize: 0x0 }
  - { offset: 0x3BB68A, size: 0x8, addend: 0x0, symName: __ZTV36mtmd_image_preprocessor_longest_edge, symObjAddr: 0xA218, symBinAddr: 0xB10F8, symSize: 0x0 }
  - { offset: 0x3BB71B, size: 0x8, addend: 0x0, symName: __ZTV32mtmd_image_preprocessor_idefics3, symObjAddr: 0xA258, symBinAddr: 0xB1138, symSize: 0x0 }
  - { offset: 0x3BB7AC, size: 0x8, addend: 0x0, symName: __ZTV32mtmd_image_preprocessor_internvl, symObjAddr: 0xA2A0, symBinAddr: 0xB1180, symSize: 0x0 }
  - { offset: 0x3BB83D, size: 0x8, addend: 0x0, symName: __ZTV35mtmd_image_preprocessor_deepseekocr, symObjAddr: 0xA2E8, symBinAddr: 0xB11C8, symSize: 0x0 }
  - { offset: 0x3BB8CE, size: 0x8, addend: 0x0, symName: __ZTV31mtmd_image_preprocessor_step3vl, symObjAddr: 0xA328, symBinAddr: 0xB1208, symSize: 0x0 }
  - { offset: 0x3BBAA9, size: 0x8, addend: 0x0, symName: __ZTV31mtmd_image_preprocessor_youtuvl, symObjAddr: 0xA370, symBinAddr: 0xB1250, symSize: 0x0 }
  - { offset: 0x3BBB3A, size: 0x8, addend: 0x0, symName: __ZTV28mtmd_image_preprocessor_lfm2, symObjAddr: 0xA3B0, symBinAddr: 0xB1290, symSize: 0x0 }
  - { offset: 0x3BBFDC, size: 0x8, addend: 0x0, symName: __ZN23mtmd_image_preprocessor13img_u8_to_f32ERK13clip_image_u8R14clip_image_f32PKfS6_, symObjAddr: 0x28, symBinAddr: 0x8B894, symSize: 0xDC }
  - { offset: 0x3BC3C8, size: 0x8, addend: 0x0, symName: __ZN23mtmd_image_preprocessor13img_u8_to_f32ERK13clip_image_u8R14clip_image_f32, symObjAddr: 0x104, symBinAddr: 0x8B970, symSize: 0x174 }
  - { offset: 0x3BCD0A, size: 0x8, addend: 0x0, symName: __ZN33mtmd_image_preprocessor_llava_uhd10preprocessERK13clip_image_u8R20clip_image_f32_batch, symObjAddr: 0x278, symBinAddr: 0x8BAE4, symSize: 0x2C0 }
  - { offset: 0x3BD8F1, size: 0x8, addend: 0x0, symName: __ZN33mtmd_image_preprocessor_llava_uhd11slice_imageERK13clip_image_u8RKNS_18slice_instructionsEb, symObjAddr: 0x538, symBinAddr: 0x8BDA4, symSize: 0x3C4 }
  - { offset: 0x3BEDC6, size: 0x8, addend: 0x0, symName: __ZNSt3__16vectorIN33mtmd_image_preprocessor_llava_uhd17slice_coordinatesENS_9allocatorIS2_EEE20__throw_length_errorB9nqe210106Ev, symObjAddr: 0x7C88, symBinAddr: 0x92BB4, symSize: 0x14 }
  - { offset: 0x3BEE35, size: 0x8, addend: 0x0, symName: __ZNSt3__16vectorINS_10unique_ptrI13clip_image_u821clip_image_u8_deleterEENS_9allocatorIS4_EEED1B9nqe210106Ev, symObjAddr: 0x930, symBinAddr: 0x8C168, symSize: 0x70 }
  - { offset: 0x3BF60E, size: 0x8, addend: 0x0, symName: __ZN8img_tool6resizeERK13clip_image_u8RS0_RK15clip_image_size11resize_algobNSt3__15arrayIhLm3EEE, symObjAddr: 0x1774, symBinAddr: 0x8CFAC, symSize: 0x4D8 }
  - { offset: 0x3C0265, size: 0x8, addend: 0x0, symName: __ZN8img_tool4cropERK13clip_image_u8RS0_iiii, symObjAddr: 0x1C4C, symBinAddr: 0x8D484, symSize: 0x224 }
  - { offset: 0x3C0916, size: 0x8, addend: 0x0, symName: __ZNSt3__110unique_ptrI13clip_image_u821clip_image_u8_deleterED1B9nqe210106Ev, symObjAddr: 0x1E70, symBinAddr: 0x8D6A8, symSize: 0x34 }
  - { offset: 0x3C0929, size: 0x8, addend: 0x0, symName: __ZNSt3__16vectorINS_10unique_ptrI13clip_image_u821clip_image_u8_deleterEENS_9allocatorIS4_EEE20__throw_length_errorB9nqe210106Ev, symObjAddr: 0x7C9C, symBinAddr: 0x92BC8, symSize: 0x14 }
  - { offset: 0x3C094C, size: 0x8, addend: 0x0, symName: __ZNSt3__110unique_ptrI13clip_image_u821clip_image_u8_deleterED1B9nqe210106Ev, symObjAddr: 0x1E70, symBinAddr: 0x8D6A8, symSize: 0x34 }
  - { offset: 0x3C1084, size: 0x8, addend: 0x0, symName: __ZN33mtmd_image_preprocessor_llava_uhd22get_slice_instructionsERK15clip_image_size, symObjAddr: 0x9A0, symBinAddr: 0x8C1D8, symSize: 0x6E0 }
  - { offset: 0x3C20F8, size: 0x8, addend: 0x0, symName: __ZL17clip_log_internal14ggml_log_levelPKcz, symObjAddr: 0x117C, symBinAddr: 0x8C9B4, symSize: 0xF0 }
  - { offset: 0x3C225A, size: 0x8, addend: 0x0, symName: __ZN33mtmd_image_preprocessor_llava_uhd13get_best_gridEiif, symObjAddr: 0x12F4, symBinAddr: 0x8CB2C, symSize: 0x3A4 }
  - { offset: 0x3C2BAE, size: 0x8, addend: 0x0, symName: __ZNSt3__16vectorIN33mtmd_image_preprocessor_llava_uhd17slice_coordinatesENS_9allocatorIS2_EEE20__throw_length_errorB9nqe210106Ev, symObjAddr: 0x7C88, symBinAddr: 0x92BB4, symSize: 0x14 }
  - { offset: 0x3C2BC6, size: 0x8, addend: 0x0, symName: __ZNSt3__16vectorINS_10unique_ptrI13clip_image_u821clip_image_u8_deleterEENS_9allocatorIS4_EEE20__throw_length_errorB9nqe210106Ev, symObjAddr: 0x7C9C, symBinAddr: 0x92BC8, symSize: 0x14 }
  - { offset: 0x3C2BED, size: 0x8, addend: 0x0, symName: __ZN33mtmd_image_preprocessor_llava_uhd22select_best_resolutionERK15clip_image_sizeRKNSt3__16vectorIS0_NS3_9allocatorIS0_EEEE, symObjAddr: 0x1080, symBinAddr: 0x8C8B8, symSize: 0xFC }
  - { offset: 0x3C2DF7, size: 0x8, addend: 0x0, symName: __ZN33mtmd_image_preprocessor_llava_uhd15get_best_resizeERK15clip_image_sizeiib, symObjAddr: 0x126C, symBinAddr: 0x8CAA4, symSize: 0x88 }
  - { offset: 0x3C36C2, size: 0x8, addend: 0x0, symName: '__ZNSt3__111__introsortINS_17_ClassicAlgPolicyERZN28mtmd_image_preprocessor_lfm217get_target_ratiosEvE3$_0P15clip_image_sizeLb0EEEvT1_S7_T0_NS_15iterator_traitsIS7_E15difference_typeEb', symObjAddr: 0x7CC4, symBinAddr: 0x92BDC, symSize: 0xB2C }
  - { offset: 0x3C36E2, size: 0x8, addend: 0x0, symName: __ZN33mtmd_image_preprocessor_llava_uhd15get_refine_sizeERK15clip_image_sizeS2_iib, symObjAddr: 0x1698, symBinAddr: 0x8CED0, symSize: 0xDC }
  - { offset: 0x3C4037, size: 0x8, addend: 0x0, symName: __ZNSt3__16vectorIhNS_9allocatorIhEEE18__assign_with_sizeB9nqe210106IPhS5_EEvT_T0_l, symObjAddr: 0x6384, symBinAddr: 0x91AFC, symSize: 0x138 }
  - { offset: 0x3C4A29, size: 0x8, addend: 0x0, symName: __ZN8img_tool15resize_bilinearERK13clip_image_u8RS0_ii, symObjAddr: 0x5668, symBinAddr: 0x90DE0, symSize: 0x3F0 }
  - { offset: 0x3C5211, size: 0x8, addend: 0x0, symName: __ZN8img_tool14resize_bicubicERK13clip_image_u8RS0_ii, symObjAddr: 0x5A58, symBinAddr: 0x911D0, symSize: 0x6A0 }
  - { offset: 0x3C59CC, size: 0x8, addend: 0x0, symName: __ZN8img_tool21resize_bicubic_pillowERK13clip_image_u8RS0_ii, symObjAddr: 0x60F8, symBinAddr: 0x91870, symSize: 0x28C }
  - { offset: 0x3C59D7, size: 0x8, addend: 0x0, symName: __ZN8img_tool21resize_bicubic_pillowERK13clip_image_u8RS0_ii, symObjAddr: 0x60F8, symBinAddr: 0x91870, symSize: 0x28C }
  - { offset: 0x3C6A75, size: 0x8, addend: 0x0, symName: __ZZN8img_tool21resize_bicubic_pillowERK13clip_image_u8RS0_iiENKUliiRNSt3__16vectorIiNS4_9allocatorIiEEEES9_E_clEiiS9_S9_, symObjAddr: 0x64D0, symBinAddr: 0x91C34, symSize: 0x784 }
  - { offset: 0x3C6A80, size: 0x8, addend: 0x0, symName: __ZN8img_tool6resizeERK13clip_image_u8RS0_RK15clip_image_size11resize_algobNSt3__15arrayIhLm3EEE.cold.1, symObjAddr: 0x8CD8, symBinAddr: 0x9DF58, symSize: 0x1C }
  - { offset: 0x3C6AB3, size: 0x8, addend: 0x0, symName: __ZN33mtmd_image_preprocessor_llava_uhd13ensure_divideEii, symObjAddr: 0x1EA4, symBinAddr: 0x8D6DC, symSize: 0x24 }
  - { offset: 0x3C6B52, size: 0x8, addend: 0x0, symName: __ZN33mtmd_image_preprocessor_llava_uhd28resize_maintain_aspect_ratioERK15clip_image_sizeS2_, symObjAddr: 0x1EC8, symBinAddr: 0x8D700, symSize: 0x38 }
  - { offset: 0x3C6BDA, size: 0x8, addend: 0x0, symName: __ZN34mtmd_image_preprocessor_fixed_size10preprocessERK13clip_image_u8R20clip_image_f32_batch, symObjAddr: 0x1F00, symBinAddr: 0x8D738, symSize: 0x230 }
  - { offset: 0x3C75B5, size: 0x8, addend: 0x0, symName: __ZN32mtmd_image_preprocessor_dyn_size10preprocessERK13clip_image_u8R20clip_image_f32_batch, symObjAddr: 0x2130, symBinAddr: 0x8D968, symSize: 0x28C }
  - { offset: 0x3C7FDC, size: 0x8, addend: 0x0, symName: __ZN8img_tool25calc_size_preserved_ratioERK15clip_image_sizeiii, symObjAddr: 0x23BC, symBinAddr: 0x8DBF4, symSize: 0xF8 }
  - { offset: 0x3C8211, size: 0x8, addend: 0x0, symName: __ZN36mtmd_image_preprocessor_longest_edge10preprocessERK13clip_image_u8R20clip_image_f32_batch, symObjAddr: 0x24B4, symBinAddr: 0x8DCEC, symSize: 0x2F8 }
  - { offset: 0x3C8393, size: 0x8, addend: 0x0, symName: __ZN36mtmd_image_preprocessor_longest_edge10preprocessERK13clip_image_u8R20clip_image_f32_batch, symObjAddr: 0x24B4, symBinAddr: 0x8DCEC, symSize: 0x2F8 }
  - { offset: 0x3C8F67, size: 0x8, addend: 0x0, symName: __ZN28mtmd_image_preprocessor_lfm222get_slice_instructionsERK15clip_image_size, symObjAddr: 0x27AC, symBinAddr: 0x8DFE4, symSize: 0x318 }
  - { offset: 0x3C97EB, size: 0x8, addend: 0x0, symName: __ZN28mtmd_image_preprocessor_lfm217get_target_ratiosEv, symObjAddr: 0x2BFC, symBinAddr: 0x8E434, symSize: 0x1F0 }
  - { offset: 0x3C9E80, size: 0x8, addend: 0x0, symName: __ZN28mtmd_image_preprocessor_lfm215get_grid_layoutEii, symObjAddr: 0x2AC4, symBinAddr: 0x8E2FC, symSize: 0xC0 }
  - { offset: 0x3CA0B4, size: 0x8, addend: 0x0, symName: __ZN28mtmd_image_preprocessor_lfm225find_closest_aspect_ratioEfRKNSt3__16vectorI15clip_image_sizeNS0_9allocatorIS2_EEEEii, symObjAddr: 0x2B84, symBinAddr: 0x8E3BC, symSize: 0x78 }
  - { offset: 0x3CA111, size: 0x8, addend: 0x0, symName: __ZN28mtmd_image_preprocessor_lfm225find_closest_aspect_ratioEfRKNSt3__16vectorI15clip_image_sizeNS0_9allocatorIS2_EEEEii, symObjAddr: 0x2B84, symBinAddr: 0x8E3BC, symSize: 0x78 }
  - { offset: 0x3CA143, size: 0x8, addend: 0x0, symName: __ZN28mtmd_image_preprocessor_lfm225find_closest_aspect_ratioEfRKNSt3__16vectorI15clip_image_sizeNS0_9allocatorIS2_EEEEii, symObjAddr: 0x2B84, symBinAddr: 0x8E3BC, symSize: 0x78 }
  - { offset: 0x3CA3DD, size: 0x8, addend: 0x0, symName: __ZN32mtmd_image_preprocessor_idefics310preprocessERK13clip_image_u8R20clip_image_f32_batch, symObjAddr: 0x2DEC, symBinAddr: 0x8E624, symSize: 0x4D8 }
  - { offset: 0x3CB53D, size: 0x8, addend: 0x0, symName: __ZN32mtmd_image_preprocessor_internvl10preprocessERK13clip_image_u8R20clip_image_f32_batch, symObjAddr: 0x32C4, symBinAddr: 0x8EAFC, symSize: 0x2F0 }
  - { offset: 0x3CC29A, size: 0x8, addend: 0x0, symName: __ZN35mtmd_image_preprocessor_deepseekocr10preprocessERK13clip_image_u8R20clip_image_f32_batch, symObjAddr: 0x35B4, symBinAddr: 0x8EDEC, symSize: 0x2B4 }
  - { offset: 0x3CCE06, size: 0x8, addend: 0x0, symName: __ZN31mtmd_image_preprocessor_step3vl29img_u8_resize_bilinear_to_f32ERK13clip_image_u8R14clip_image_f32iiPKfS6_, symObjAddr: 0x3868, symBinAddr: 0x8F0A0, symSize: 0x3D4 }
  - { offset: 0x3CD366, size: 0x8, addend: 0x0, symName: __ZN31mtmd_image_preprocessor_step3vl22get_image_longest_edgeERK12clip_hparams, symObjAddr: 0x3C3C, symBinAddr: 0x8F474, symSize: 0x14 }
  - { offset: 0x3CD385, size: 0x8, addend: 0x0, symName: __ZN31mtmd_image_preprocessor_step3vl21determine_window_sizeERK12clip_hparamsii, symObjAddr: 0x3C50, symBinAddr: 0x8F488, symSize: 0x44 }
  - { offset: 0x3CD3D0, size: 0x8, addend: 0x0, symName: __ZN31mtmd_image_preprocessor_step3vl16calc_crop_extentEii, symObjAddr: 0x3C94, symBinAddr: 0x8F4CC, symSize: 0x40 }
  - { offset: 0x3CD57B, size: 0x8, addend: 0x0, symName: __ZN31mtmd_image_preprocessor_step3vl9calc_gridEii, symObjAddr: 0x3CD4, symBinAddr: 0x8F50C, symSize: 0x1A8 }
  - { offset: 0x3CDA1A, size: 0x8, addend: 0x0, symName: __ZN31mtmd_image_preprocessor_step3vl13prepare_imageERK13clip_image_u8RK12clip_hparams, symObjAddr: 0x3E7C, symBinAddr: 0x8F6B4, symSize: 0x308 }
  - { offset: 0x3CE769, size: 0x8, addend: 0x0, symName: __ZN31mtmd_image_preprocessor_step3vl23crop_with_black_paddingERK13clip_image_u8iiii, symObjAddr: 0x4184, symBinAddr: 0x8F9BC, symSize: 0x390 }
  - { offset: 0x3CEB20, size: 0x8, addend: 0x0, symName: __ZN31mtmd_image_preprocessor_step3vl24build_slice_instructionsERK12clip_hparamsRK15clip_image_size, symObjAddr: 0x4514, symBinAddr: 0x8FD4C, symSize: 0x60C }
  - { offset: 0x3CEC8F, size: 0x8, addend: 0x0, symName: __ZN31mtmd_image_preprocessor_step3vl24build_slice_instructionsERK12clip_hparamsRK15clip_image_size, symObjAddr: 0x4514, symBinAddr: 0x8FD4C, symSize: 0x60C }
  - { offset: 0x3CFB3E, size: 0x8, addend: 0x0, symName: __ZN31mtmd_image_preprocessor_step3vl10preprocessERK13clip_image_u8R20clip_image_f32_batch, symObjAddr: 0x4B20, symBinAddr: 0x90358, symSize: 0x788 }
  - { offset: 0x3D1A43, size: 0x8, addend: 0x0, symName: __ZN31mtmd_image_preprocessor_youtuvl10preprocessERK13clip_image_u8R20clip_image_f32_batch, symObjAddr: 0x52A8, symBinAddr: 0x90AE0, symSize: 0x2B0 }
  - { offset: 0x3D258A, size: 0x8, addend: 0x0, symName: __ZN33mtmd_image_preprocessor_llava_uhdD1Ev, symObjAddr: 0x5558, symBinAddr: 0x90D90, symSize: 0x4 }
  - { offset: 0x3D25B9, size: 0x8, addend: 0x0, symName: __ZN33mtmd_image_preprocessor_llava_uhdD0Ev, symObjAddr: 0x555C, symBinAddr: 0x90D94, symSize: 0x4 }
  - { offset: 0x3D25E4, size: 0x8, addend: 0x0, symName: __ZN34mtmd_image_preprocessor_fixed_sizeD1Ev, symObjAddr: 0x5560, symBinAddr: 0x90D98, symSize: 0x4 }
  - { offset: 0x3D2613, size: 0x8, addend: 0x0, symName: __ZN34mtmd_image_preprocessor_fixed_sizeD0Ev, symObjAddr: 0x5564, symBinAddr: 0x90D9C, symSize: 0x4 }
  - { offset: 0x3D263E, size: 0x8, addend: 0x0, symName: __ZN32mtmd_image_preprocessor_dyn_sizeD1Ev, symObjAddr: 0x5568, symBinAddr: 0x90DA0, symSize: 0x4 }
  - { offset: 0x3D266D, size: 0x8, addend: 0x0, symName: __ZN32mtmd_image_preprocessor_dyn_sizeD0Ev, symObjAddr: 0x556C, symBinAddr: 0x90DA4, symSize: 0x4 }
  - { offset: 0x3D2698, size: 0x8, addend: 0x0, symName: __ZN36mtmd_image_preprocessor_longest_edgeD1Ev, symObjAddr: 0x5570, symBinAddr: 0x90DA8, symSize: 0x4 }
  - { offset: 0x3D26C7, size: 0x8, addend: 0x0, symName: __ZN36mtmd_image_preprocessor_longest_edgeD0Ev, symObjAddr: 0x5574, symBinAddr: 0x90DAC, symSize: 0x4 }
  - { offset: 0x3D26F2, size: 0x8, addend: 0x0, symName: __ZN32mtmd_image_preprocessor_idefics3D1Ev, symObjAddr: 0x5578, symBinAddr: 0x90DB0, symSize: 0x4 }
  - { offset: 0x3D2721, size: 0x8, addend: 0x0, symName: __ZN32mtmd_image_preprocessor_idefics3D0Ev, symObjAddr: 0x557C, symBinAddr: 0x90DB4, symSize: 0x4 }
  - { offset: 0x3D274C, size: 0x8, addend: 0x0, symName: __ZN32mtmd_image_preprocessor_internvlD1Ev, symObjAddr: 0x5580, symBinAddr: 0x90DB8, symSize: 0x4 }
  - { offset: 0x3D277B, size: 0x8, addend: 0x0, symName: __ZN32mtmd_image_preprocessor_internvlD0Ev, symObjAddr: 0x5584, symBinAddr: 0x90DBC, symSize: 0x4 }
  - { offset: 0x3D27A6, size: 0x8, addend: 0x0, symName: __ZN35mtmd_image_preprocessor_deepseekocrD1Ev, symObjAddr: 0x5588, symBinAddr: 0x90DC0, symSize: 0x4 }
  - { offset: 0x3D27D5, size: 0x8, addend: 0x0, symName: __ZN35mtmd_image_preprocessor_deepseekocrD0Ev, symObjAddr: 0x558C, symBinAddr: 0x90DC4, symSize: 0x4 }
  - { offset: 0x3D2800, size: 0x8, addend: 0x0, symName: __ZN31mtmd_image_preprocessor_step3vlD1Ev, symObjAddr: 0x5590, symBinAddr: 0x90DC8, symSize: 0x4 }
  - { offset: 0x3D282F, size: 0x8, addend: 0x0, symName: __ZN31mtmd_image_preprocessor_step3vlD0Ev, symObjAddr: 0x5594, symBinAddr: 0x90DCC, symSize: 0x4 }
  - { offset: 0x3D285A, size: 0x8, addend: 0x0, symName: __ZN31mtmd_image_preprocessor_youtuvlD1Ev, symObjAddr: 0x5598, symBinAddr: 0x90DD0, symSize: 0x4 }
  - { offset: 0x3D2889, size: 0x8, addend: 0x0, symName: __ZN31mtmd_image_preprocessor_youtuvlD0Ev, symObjAddr: 0x559C, symBinAddr: 0x90DD4, symSize: 0x4 }
  - { offset: 0x3D28B4, size: 0x8, addend: 0x0, symName: __ZN28mtmd_image_preprocessor_lfm2D1Ev, symObjAddr: 0x55A0, symBinAddr: 0x90DD8, symSize: 0x4 }
  - { offset: 0x3D28E3, size: 0x8, addend: 0x0, symName: __ZN28mtmd_image_preprocessor_lfm2D0Ev, symObjAddr: 0x55A4, symBinAddr: 0x90DDC, symSize: 0x4 }
  - { offset: 0x3D2A80, size: 0x8, addend: 0x0, symName: __ZZN8img_tool21resize_bicubic_pillowERK13clip_image_u8RS0_iiENKUliiRNSt3__16vectorIiNS4_9allocatorIiEEEES9_E_clEiiS9_S9_, symObjAddr: 0x64D0, symBinAddr: 0x91C34, symSize: 0x784 }
  - { offset: 0x3D307C, size: 0x8, addend: 0x0, symName: __ZZN8img_tool21resize_bicubic_pillowERK13clip_image_u8RS0_iiENKUlS2_S3_iRKNSt3__16vectorIiNS4_9allocatorIiEEEESA_E_clES2_S3_iSA_SA_, symObjAddr: 0x6C54, symBinAddr: 0x923B8, symSize: 0x544 }
  - { offset: 0x3D37AE, size: 0x8, addend: 0x0, symName: __ZZN8img_tool21resize_bicubic_pillowERK13clip_image_u8RS0_iiENKUlS2_S3_iRKNSt3__16vectorIiNS4_9allocatorIiEEEESA_E0_clES2_S3_iSA_SA_, symObjAddr: 0x7198, symBinAddr: 0x928FC, symSize: 0x2B8 }
  - { offset: 0x3D37C4, size: 0x8, addend: 0x0, symName: __ZZN8img_tool21resize_bicubic_pillowERK13clip_image_u8RS0_iiENKUlS2_S3_iRKNSt3__16vectorIiNS4_9allocatorIiEEEESA_E0_clES2_S3_iSA_SA_, symObjAddr: 0x7198, symBinAddr: 0x928FC, symSize: 0x2B8 }
  - { offset: 0x3D6328, size: 0x8, addend: 0x0, symName: __GLOBAL__sub_I_mtmd_image.cpp, symObjAddr: 0x9258, symBinAddr: 0x93BF0, symSize: 0xA58 }
  - { offset: 0x3DC80B, size: 0x8, addend: 0x0, symName: __ZL20PROJECTOR_TYPE_NAMES, symObjAddr: 0x126830, symBinAddr: 0xB4D70, symSize: 0x0 }
  - { offset: 0x3F2FF0, size: 0x8, addend: 0x0, symName: __ZNSt3__120__throw_out_of_rangeB9nqe210106EPKc, symObjAddr: 0x6F84, symBinAddr: 0x9B450, symSize: 0x50 }
  - { offset: 0x3F55CB, size: 0x8, addend: 0x0, symName: __ZTV23mtmd_image_preprocessor, symObjAddr: 0xBB08, symBinAddr: 0xB12D8, symSize: 0x0 }
  - { offset: 0x3F5FE5, size: 0x8, addend: 0x0, symName: __ZTV23mtmd_audio_preprocessor, symObjAddr: 0xBB40, symBinAddr: 0xB1300, symSize: 0x0 }
  - { offset: 0x3F7598, size: 0x8, addend: 0x0, symName: _mtmd_default_marker, symObjAddr: 0x28, symBinAddr: 0x94648, symSize: 0xC }
  - { offset: 0x3F75B2, size: 0x8, addend: 0x0, symName: _mtmd_context_params_default, symObjAddr: 0x34, symBinAddr: 0x94654, symSize: 0x3C }
  - { offset: 0x3F79F1, size: 0x8, addend: 0x0, symName: _mtmd_init_from_file, symObjAddr: 0x70, symBinAddr: 0x94690, symSize: 0xE0 }
  - { offset: 0x3F7AC9, size: 0x8, addend: 0x0, symName: __ZN12mtmd_contextC2EPKcPK11llama_modelRK19mtmd_context_params, symObjAddr: 0x2A54, symBinAddr: 0x96FF4, symSize: 0x670 }
  - { offset: 0x3F90AD, size: 0x8, addend: 0x0, symName: __ZL17clip_log_internal14ggml_log_levelPKcz, symObjAddr: 0x150, symBinAddr: 0x94770, symSize: 0xFC }
  - { offset: 0x3F92E6, size: 0x8, addend: 0x0, symName: _mtmd_free, symObjAddr: 0x25C, symBinAddr: 0x9486C, symSize: 0x1C }
  - { offset: 0x3F9339, size: 0x8, addend: 0x0, symName: __ZN12mtmd_contextD2Ev, symObjAddr: 0x4EC4, symBinAddr: 0x99390, symSize: 0x180 }
  - { offset: 0x3FAC2E, size: 0x8, addend: 0x0, symName: _mtmd_tokenize, symObjAddr: 0x278, symBinAddr: 0x94888, symSize: 0xE8 }
  - { offset: 0x3FB338, size: 0x8, addend: 0x0, symName: __ZN14mtmd_tokenizerC2EP12mtmd_contextPK15mtmd_input_textPPK11mtmd_bitmapm, symObjAddr: 0x5044, symBinAddr: 0x99510, symSize: 0x100 }
  - { offset: 0x3FB993, size: 0x8, addend: 0x0, symName: __ZN14mtmd_tokenizer8tokenizeEP17mtmd_input_chunks, symObjAddr: 0x360, symBinAddr: 0x94970, symSize: 0x538 }
  - { offset: 0x3FD59C, size: 0x8, addend: 0x0, symName: __ZNSt3__110unique_ptrI17mtmd_audio_tokensNS_14default_deleteIS1_EEE5resetB9nqe210106EPS1_, symObjAddr: 0x8E28, symBinAddr: 0x9CB94, symSize: 0xB4 }
  - { offset: 0x3FD916, size: 0x8, addend: 0x0, symName: __ZNSt3__110unique_ptrI17mtmd_image_tokensNS_14default_deleteIS1_EEE5resetB9nqe210106EPS1_, symObjAddr: 0x8D74, symBinAddr: 0x9CAE0, symSize: 0xB4 }
  - { offset: 0x3FDC90, size: 0x8, addend: 0x0, symName: __ZN14mtmd_tokenizerD1Ev, symObjAddr: 0x898, symBinAddr: 0x94EA8, symSize: 0xB0 }
  - { offset: 0x3FEB2E, size: 0x8, addend: 0x0, symName: __ZN14mtmd_tokenizer10split_textERKNSt3__112basic_stringIcNS0_11char_traitsIcEENS0_9allocatorIcEEEES8_, symObjAddr: 0x5144, symBinAddr: 0x99610, symSize: 0x3E8 }
  - { offset: 0x3FF828, size: 0x8, addend: 0x0, symName: __ZN14mtmd_tokenizer8add_textERKNSt3__112basic_stringIcNS0_11char_traitsIcEENS0_9allocatorIcEEEEb, symObjAddr: 0x6638, symBinAddr: 0x9AB04, symSize: 0xB0 }
  - { offset: 0x3FFB8F, size: 0x8, addend: 0x0, symName: __ZN14mtmd_tokenizer9add_mediaEPK11mtmd_bitmap, symObjAddr: 0x552C, symBinAddr: 0x999F8, symSize: 0x110C }
  - { offset: 0x4040CD, size: 0x8, addend: 0x0, symName: __ZNSt3__16vectorI16mtmd_input_chunkNS_9allocatorIS1_EEE6insertENS_11__wrap_iterIPKS1_EEOS1_, symObjAddr: 0x68E4, symBinAddr: 0x9ADB0, symSize: 0x220 }
  - { offset: 0x4049AF, size: 0x8, addend: 0x0, symName: __ZNSt3__16vectorIiNS_9allocatorIiEEE6insertENS_11__wrap_iterIPKiEEOi, symObjAddr: 0x66E8, symBinAddr: 0x9ABB4, symSize: 0x1FC }
  - { offset: 0x4051C8, size: 0x8, addend: 0x0, symName: __ZN14mtmd_tokenizer8add_textERKNSt3__16vectorIiNS0_9allocatorIiEEEE, symObjAddr: 0x6B04, symBinAddr: 0x9AFD0, symSize: 0x24C }
  - { offset: 0x40610F, size: 0x8, addend: 0x0, symName: __ZN16mtmd_input_chunkD1Ev, symObjAddr: 0x1944, symBinAddr: 0x95F54, symSize: 0x48 }
  - { offset: 0x4062E2, size: 0x8, addend: 0x0, symName: __ZNSt3__16vectorINS_12basic_stringIcNS_11char_traitsIcEENS_9allocatorIcEEEENS4_IS6_EEED1B9nqe210106Ev, symObjAddr: 0x6D50, symBinAddr: 0x9B21C, symSize: 0x70 }
  - { offset: 0x406615, size: 0x8, addend: 0x0, symName: _mtmd_encode_chunk, symObjAddr: 0x948, symBinAddr: 0x94F58, symSize: 0x154 }
  - { offset: 0x4067BE, size: 0x8, addend: 0x0, symName: _mtmd_encode, symObjAddr: 0xA9C, symBinAddr: 0x950AC, symSize: 0x1B8 }
  - { offset: 0x406D6A, size: 0x8, addend: 0x0, symName: __ZNSt3__16vectorINS_10unique_ptrI14clip_image_f3222clip_image_f32_deleterEENS_9allocatorIS4_EEE8__appendEm, symObjAddr: 0x9284, symBinAddr: 0x9CEC4, symSize: 0x118 }
  - { offset: 0x406E9B, size: 0x8, addend: 0x0, symName: _mtmd_get_output_embd, symObjAddr: 0xC54, symBinAddr: 0x95264, symSize: 0x8 }
  - { offset: 0x406ECB, size: 0x8, addend: 0x0, symName: _mtmd_get_output_embd, symObjAddr: 0xC54, symBinAddr: 0x95264, symSize: 0x8 }
  - { offset: 0x406F1A, size: 0x8, addend: 0x0, symName: _mtmd_decode_use_non_causal, symObjAddr: 0xC5C, symBinAddr: 0x9526C, symSize: 0x90 }
  - { offset: 0x406FC1, size: 0x8, addend: 0x0, symName: _mtmd_decode_use_mrope, symObjAddr: 0xCEC, symBinAddr: 0x952FC, symSize: 0x10 }
  - { offset: 0x406FE0, size: 0x8, addend: 0x0, symName: _mtmd_support_vision, symObjAddr: 0xCFC, symBinAddr: 0x9530C, symSize: 0x10 }
  - { offset: 0x40700D, size: 0x8, addend: 0x0, symName: _mtmd_support_audio, symObjAddr: 0xD0C, symBinAddr: 0x9531C, symSize: 0x10 }
  - { offset: 0x40703A, size: 0x8, addend: 0x0, symName: _mtmd_get_audio_sample_rate, symObjAddr: 0xD1C, symBinAddr: 0x9532C, symSize: 0x28 }
  - { offset: 0x40733B, size: 0x8, addend: 0x0, symName: _mtmd_bitmap_init, symObjAddr: 0xD44, symBinAddr: 0x95354, symSize: 0xAC }
  - { offset: 0x40764E, size: 0x8, addend: 0x0, symName: _mtmd_bitmap_init_from_audio, symObjAddr: 0xDF0, symBinAddr: 0x95400, symSize: 0xA4 }
  - { offset: 0x40766E, size: 0x8, addend: 0x0, symName: _mtmd_bitmap_init_from_audio, symObjAddr: 0xDF0, symBinAddr: 0x95400, symSize: 0xA4 }
  - { offset: 0x407970, size: 0x8, addend: 0x0, symName: _mtmd_bitmap_get_nx, symObjAddr: 0xE94, symBinAddr: 0x954A4, symSize: 0x8 }
  - { offset: 0x40797B, size: 0x8, addend: 0x0, symName: _mtmd_bitmap_get_nx, symObjAddr: 0xE94, symBinAddr: 0x954A4, symSize: 0x8 }
  - { offset: 0x4079A8, size: 0x8, addend: 0x0, symName: _mtmd_bitmap_get_ny, symObjAddr: 0xE9C, symBinAddr: 0x954AC, symSize: 0x8 }
  - { offset: 0x4079EB, size: 0x8, addend: 0x0, symName: _mtmd_bitmap_get_data, symObjAddr: 0xEA4, symBinAddr: 0x954B4, symSize: 0x8 }
  - { offset: 0x407A1B, size: 0x8, addend: 0x0, symName: _mtmd_bitmap_get_data, symObjAddr: 0xEA4, symBinAddr: 0x954B4, symSize: 0x8 }
  - { offset: 0x407A4E, size: 0x8, addend: 0x0, symName: _mtmd_bitmap_get_n_bytes, symObjAddr: 0xEAC, symBinAddr: 0x954BC, symSize: 0xC }
  - { offset: 0x407A7E, size: 0x8, addend: 0x0, symName: _mtmd_bitmap_get_n_bytes, symObjAddr: 0xEAC, symBinAddr: 0x954BC, symSize: 0xC }
  - { offset: 0x407A9B, size: 0x8, addend: 0x0, symName: _mtmd_bitmap_is_audio, symObjAddr: 0xEB8, symBinAddr: 0x954C8, symSize: 0x8 }
  - { offset: 0x407AF4, size: 0x8, addend: 0x0, symName: _mtmd_bitmap_get_id, symObjAddr: 0xEC0, symBinAddr: 0x954D0, symSize: 0x1C }
  - { offset: 0x407E0B, size: 0x8, addend: 0x0, symName: _mtmd_bitmap_set_id, symObjAddr: 0xEDC, symBinAddr: 0x954EC, symSize: 0x128 }
  - { offset: 0x40824A, size: 0x8, addend: 0x0, symName: __ZNSt3__112basic_stringIcNS_11char_traitsIcEENS_9allocatorIcEEEC1B9nqe210106ILi0EEEPKc, symObjAddr: 0x1004, symBinAddr: 0x95614, symSize: 0xA8 }
  - { offset: 0x408271, size: 0x8, addend: 0x0, symName: __ZN12mtmd_context12lookup_tokenERKNSt3__112basic_stringIcNS0_11char_traitsIcEENS0_9allocatorIcEEEE, symObjAddr: 0x491C, symBinAddr: 0x98E0C, symSize: 0x100 }
  - { offset: 0x40827C, size: 0x8, addend: 0x0, symName: __ZNSt3__112basic_stringIcNS_11char_traitsIcEENS_9allocatorIcEEEC1B9nqe210106ILi0EEEPKc, symObjAddr: 0x1004, symBinAddr: 0x95614, symSize: 0xA8 }
  - { offset: 0x4084E9, size: 0x8, addend: 0x0, symName: _mtmd_bitmap_free, symObjAddr: 0x10AC, symBinAddr: 0x956BC, symSize: 0x48 }
  - { offset: 0x40863A, size: 0x8, addend: 0x0, symName: _mtmd_bitmap_free, symObjAddr: 0x10AC, symBinAddr: 0x956BC, symSize: 0x48 }
  - { offset: 0x408905, size: 0x8, addend: 0x0, symName: _mtmd_input_chunks_init, symObjAddr: 0x10F4, symBinAddr: 0x95704, symSize: 0x20 }
  - { offset: 0x40898C, size: 0x8, addend: 0x0, symName: _mtmd_input_chunks_size, symObjAddr: 0x1114, symBinAddr: 0x95724, symSize: 0x1C }
  - { offset: 0x4089BC, size: 0x8, addend: 0x0, symName: _mtmd_input_chunks_size, symObjAddr: 0x1114, symBinAddr: 0x95724, symSize: 0x1C }
  - { offset: 0x4089D7, size: 0x8, addend: 0x0, symName: _mtmd_input_chunks_get, symObjAddr: 0x1130, symBinAddr: 0x95740, symSize: 0x2C }
  - { offset: 0x408A16, size: 0x8, addend: 0x0, symName: _mtmd_input_chunks_get, symObjAddr: 0x1130, symBinAddr: 0x95740, symSize: 0x2C }
  - { offset: 0x408A31, size: 0x8, addend: 0x0, symName: _mtmd_input_chunks_free, symObjAddr: 0x115C, symBinAddr: 0x9576C, symSize: 0x98 }
  - { offset: 0x408DB8, size: 0x8, addend: 0x0, symName: __ZN17mtmd_input_chunksD1Ev, symObjAddr: 0x11F4, symBinAddr: 0x95804, symSize: 0x90 }
  - { offset: 0x409135, size: 0x8, addend: 0x0, symName: _mtmd_input_chunk_get_type, symObjAddr: 0x1284, symBinAddr: 0x95894, symSize: 0x8 }
  - { offset: 0x40917E, size: 0x8, addend: 0x0, symName: _mtmd_input_chunk_get_tokens_text, symObjAddr: 0x128C, symBinAddr: 0x9589C, symSize: 0x28 }
  - { offset: 0x4091DB, size: 0x8, addend: 0x0, symName: _mtmd_input_chunk_get_tokens_image, symObjAddr: 0x12B4, symBinAddr: 0x958C4, symSize: 0x1C }
  - { offset: 0x409259, size: 0x8, addend: 0x0, symName: _mtmd_input_chunk_get_n_tokens, symObjAddr: 0x12D0, symBinAddr: 0x958E0, symSize: 0x8C }
  - { offset: 0x40931B, size: 0x8, addend: 0x0, symName: _mtmd_image_tokens_get_n_tokens, symObjAddr: 0x135C, symBinAddr: 0x9596C, symSize: 0x34 }
  - { offset: 0x40934A, size: 0x8, addend: 0x0, symName: _mtmd_image_tokens_get_n_tokens, symObjAddr: 0x135C, symBinAddr: 0x9596C, symSize: 0x34 }
  - { offset: 0x4093F7, size: 0x8, addend: 0x0, symName: _mtmd_input_chunk_get_n_pos, symObjAddr: 0x1390, symBinAddr: 0x959A0, symSize: 0xC8 }
  - { offset: 0x40956A, size: 0x8, addend: 0x0, symName: _mtmd_image_tokens_get_n_pos, symObjAddr: 0x1458, symBinAddr: 0x95A68, symSize: 0x64 }
  - { offset: 0x40957E, size: 0x8, addend: 0x0, symName: _mtmd_image_tokens_get_n_pos, symObjAddr: 0x1458, symBinAddr: 0x95A68, symSize: 0x64 }
  - { offset: 0x40964D, size: 0x8, addend: 0x0, symName: _mtmd_input_chunk_get_id, symObjAddr: 0x14BC, symBinAddr: 0x95ACC, symSize: 0x48 }
  - { offset: 0x409677, size: 0x8, addend: 0x0, symName: _mtmd_input_chunk_get_id, symObjAddr: 0x14BC, symBinAddr: 0x95ACC, symSize: 0x48 }
  - { offset: 0x409C94, size: 0x8, addend: 0x0, symName: _mtmd_input_chunk_copy, symObjAddr: 0x1504, symBinAddr: 0x95B14, symSize: 0x3F0 }
  - { offset: 0x40AEB6, size: 0x8, addend: 0x0, symName: __ZNK20clip_image_f32_batch5cloneEv, symObjAddr: 0x8604, symBinAddr: 0x9C8B0, symSize: 0x230 }
  - { offset: 0x40BAEC, size: 0x8, addend: 0x0, symName: __ZN14mtmd_tokenizer20split_batch_to_chunkEO20clip_image_f32_batchRKNSt3__112basic_stringIcNS2_11char_traitsIcEENS2_9allocatorIcEEEE, symObjAddr: 0x71CC, symBinAddr: 0x9B60C, symSize: 0x284 }
  - { offset: 0x40BB01, size: 0x8, addend: 0x0, symName: __ZNSt3__16vectorIiNS_9allocatorIiEEE18__assign_with_sizeB9nqe210106IPiS5_EEvT_T0_l, symObjAddr: 0x4D74, symBinAddr: 0x99248, symSize: 0x148 }
  - { offset: 0x40BC68, size: 0x8, addend: 0x0, symName: _mtmd_input_chunk_free, symObjAddr: 0x18F4, symBinAddr: 0x95F04, symSize: 0x50 }
  - { offset: 0x40BE5F, size: 0x8, addend: 0x0, symName: _mtmd_image_tokens_get_nx, symObjAddr: 0x198C, symBinAddr: 0x95F9C, symSize: 0x8 }
  - { offset: 0x40BE8C, size: 0x8, addend: 0x0, symName: _mtmd_image_tokens_get_ny, symObjAddr: 0x1994, symBinAddr: 0x95FA4, symSize: 0x8 }
  - { offset: 0x40BEB9, size: 0x8, addend: 0x0, symName: _mtmd_image_tokens_get_decoder_pos, symObjAddr: 0x199C, symBinAddr: 0x95FAC, symSize: 0xC4 }
  - { offset: 0x40BFA0, size: 0x8, addend: 0x0, symName: _mtmd_image_tokens_get_id, symObjAddr: 0x1A60, symBinAddr: 0x96070, symSize: 0x1C }
  - { offset: 0x40BFB4, size: 0x8, addend: 0x0, symName: _mtmd_image_tokens_get_id, symObjAddr: 0x1A60, symBinAddr: 0x96070, symSize: 0x1C }
  - { offset: 0x40C36E, size: 0x8, addend: 0x0, symName: _mtmd_test_create_input_chunks, symObjAddr: 0x1A7C, symBinAddr: 0x9608C, symSize: 0x3A0 }
  - { offset: 0x40DC93, size: 0x8, addend: 0x0, symName: __ZNSt3__16vectorI16mtmd_input_chunkNS_9allocatorIS1_EEE24__emplace_back_slow_pathIJS1_EEEPS1_DpOT_, symObjAddr: 0x8EDC, symBinAddr: 0x9CC48, symSize: 0x174 }
  - { offset: 0x40E29F, size: 0x8, addend: 0x0, symName: __ZNSt3__16vectorINS_10unique_ptrI14clip_image_f3222clip_image_f32_deleterEENS_9allocatorIS4_EEE8__appendEm, symObjAddr: 0x9284, symBinAddr: 0x9CEC4, symSize: 0x118 }
  - { offset: 0x40E766, size: 0x8, addend: 0x0, symName: __ZNSt3__16vectorIfNS_9allocatorIfEEE18__insert_with_sizeB9nqe210106INS_11__wrap_iterIPKfEES8_EENS5_IPfEES8_T_T0_l, symObjAddr: 0x939C, symBinAddr: 0x9CFDC, symSize: 0x51C }
  - { offset: 0x40E771, size: 0x8, addend: 0x0, symName: __ZNSt3__16vectorI16mtmd_input_chunkNS_9allocatorIS1_EEE12emplace_backIJS1_EEERS1_DpOT_, symObjAddr: 0x1E1C, symBinAddr: 0x9642C, symSize: 0x84 }
  - { offset: 0x40E929, size: 0x8, addend: 0x0, symName: _mtmd_log_set, symObjAddr: 0x1EA0, symBinAddr: 0x964B0, symSize: 0x20 }
  - { offset: 0x40E95F, size: 0x8, addend: 0x0, symName: __ZL25clip_log_callback_default14ggml_log_levelPKcPv, symObjAddr: 0x1EC0, symBinAddr: 0x964D0, symSize: 0x30 }
  - { offset: 0x40EEC4, size: 0x8, addend: 0x0, symName: __Z23mtmd_debug_encode_imageP12mtmd_contextRKNSt3__16vectorINS2_IfNS1_9allocatorIfEEEENS3_IS5_EEEE, symObjAddr: 0x1EF0, symBinAddr: 0x96500, symSize: 0x148 }
  - { offset: 0x40F461, size: 0x8, addend: 0x0, symName: __ZNSt3__16vectorIfNS_9allocatorIfEEE18__insert_with_sizeB9nqe210106INS_11__wrap_iterIPKfEES8_EENS5_IPfEES8_T_T0_l, symObjAddr: 0x939C, symBinAddr: 0x9CFDC, symSize: 0x51C }
  - { offset: 0x40FF4E, size: 0x8, addend: 0x0, symName: __ZL22mtmd_debug_encode_implP12mtmd_contextP8clip_ctxR14clip_image_f32, symObjAddr: 0x2038, symBinAddr: 0x96648, symSize: 0xFC }
  - { offset: 0x41061D, size: 0x8, addend: 0x0, symName: __Z23mtmd_debug_encode_audioP12mtmd_contextRKNSt3__16vectorIfNS1_9allocatorIfEEEE, symObjAddr: 0x2134, symBinAddr: 0x96744, symSize: 0x370 }
  - { offset: 0x410FE0, size: 0x8, addend: 0x0, symName: __Z27mtmd_debug_preprocess_imageP12mtmd_contextRKNSt3__16vectorIhNS1_9allocatorIhEEEEii, symObjAddr: 0x24A4, symBinAddr: 0x96AB4, symSize: 0x270 }
  - { offset: 0x411D74, size: 0x8, addend: 0x0, symName: __Z27mtmd_debug_preprocess_audioP12mtmd_contextRKNSt3__16vectorIfNS1_9allocatorIfEEEE, symObjAddr: 0x2784, symBinAddr: 0x96D24, symSize: 0x260 }
  - { offset: 0x412303, size: 0x8, addend: 0x0, symName: __ZNSt3__16vectorI14mtmd_audio_melNS_9allocatorIS1_EEED1B9nqe210106Ev, symObjAddr: 0x29E4, symBinAddr: 0x96F84, symSize: 0x70 }
  - { offset: 0x41277E, size: 0x8, addend: 0x0, symName: __ZN12mtmd_context11init_visionEv, symObjAddr: 0x3214, symBinAddr: 0x977B4, symSize: 0x1278 }
  - { offset: 0x4172EB, size: 0x8, addend: 0x0, symName: __ZN12mtmd_context10init_audioEv, symObjAddr: 0x448C, symBinAddr: 0x98A2C, symSize: 0x3E0 }
  - { offset: 0x4179BA, size: 0x8, addend: 0x0, symName: __ZL13string_formatPKcz, symObjAddr: 0x30C4, symBinAddr: 0x97664, symSize: 0x150 }
  - { offset: 0x41858B, size: 0x8, addend: 0x0, symName: __ZN12mtmd_context12lookup_tokenERKNSt3__112basic_stringIcNS0_11char_traitsIcEENS0_9allocatorIcEEEE, symObjAddr: 0x491C, symBinAddr: 0x98E0C, symSize: 0x100 }
  - { offset: 0x418888, size: 0x8, addend: 0x0, symName: __ZNSt3__16vectorIiNS_9allocatorIiEEE18__assign_with_sizeB9nqe210106IPKiS6_EEvT_T0_l, symObjAddr: 0x4B54, symBinAddr: 0x9903C, symSize: 0x20C }
  - { offset: 0x419096, size: 0x8, addend: 0x0, symName: __ZNSt3__16vectorIiNS_9allocatorIiEEE18__assign_with_sizeB9nqe210106IPiS5_EEvT_T0_l, symObjAddr: 0x4D74, symBinAddr: 0x99248, symSize: 0x148 }
  - { offset: 0x419AA8, size: 0x8, addend: 0x0, symName: __ZN23mtmd_audio_preprocessorD1Ev, symObjAddr: 0x4EBC, symBinAddr: 0x9DF7C, symSize: 0x4 }
  - { offset: 0x419C6F, size: 0x8, addend: 0x0, symName: __ZN12mtmd_context14token_to_pieceEPK11llama_vocabib, symObjAddr: 0x4A24, symBinAddr: 0x98F0C, symSize: 0x130 }
  - { offset: 0x419F95, size: 0x8, addend: 0x0, symName: __ZN23mtmd_image_preprocessorD1Ev, symObjAddr: 0x4A1C, symBinAddr: 0x9DF74, symSize: 0x4 }
  - { offset: 0x419FC2, size: 0x8, addend: 0x0, symName: __ZN23mtmd_image_preprocessorD0Ev, symObjAddr: 0x4A20, symBinAddr: 0x9DF78, symSize: 0x4 }
  - { offset: 0x41A170, size: 0x8, addend: 0x0, symName: __ZN23mtmd_audio_preprocessorD1Ev, symObjAddr: 0x4EBC, symBinAddr: 0x9DF7C, symSize: 0x4 }
  - { offset: 0x41A19D, size: 0x8, addend: 0x0, symName: __ZN23mtmd_audio_preprocessorD0Ev, symObjAddr: 0x4EC0, symBinAddr: 0x9DF80, symSize: 0x4 }
  - { offset: 0x41A73D, size: 0x8, addend: 0x0, symName: __ZNSt3__16vectorINS_12basic_stringIcNS_11char_traitsIcEENS_9allocatorIcEEEENS4_IS6_EEE9push_backB9nqe210106EOS6_, symObjAddr: 0x6DC0, symBinAddr: 0x9B28C, symSize: 0x138 }
  - { offset: 0x41ABB5, size: 0x8, addend: 0x0, symName: __ZNSt3__114__split_bufferINS_12basic_stringIcNS_11char_traitsIcEENS_9allocatorIcEEEERNS4_IS6_EEED1Ev, symObjAddr: 0x6EF8, symBinAddr: 0x9B3C4, symSize: 0x64 }
  - { offset: 0x41ABC0, size: 0x8, addend: 0x0, symName: __ZNSt3__16vectorINS_12basic_stringIcNS_11char_traitsIcEENS_9allocatorIcEEEENS4_IS6_EEE24__emplace_back_slow_pathIJRKS6_EEEPS6_DpOT_, symObjAddr: 0x6FF8, symBinAddr: 0x9B4C4, symSize: 0x148 }
  - { offset: 0x41AFF9, size: 0x8, addend: 0x0, symName: __ZNSt3__112basic_stringIcNS_11char_traitsIcEENS_9allocatorIcEEE20__throw_out_of_rangeB9nqe210106Ev, symObjAddr: 0x6F70, symBinAddr: 0x9B43C, symSize: 0x14 }
  - { offset: 0x41B011, size: 0x8, addend: 0x0, symName: __ZNSt3__120__throw_out_of_rangeB9nqe210106EPKc, symObjAddr: 0x6F84, symBinAddr: 0x9B450, symSize: 0x50 }
  - { offset: 0x41BA50, size: 0x8, addend: 0x0, symName: __ZN14mtmd_tokenizer20split_batch_to_chunkEO20clip_image_f32_batchRKNSt3__112basic_stringIcNS2_11char_traitsIcEENS2_9allocatorIcEEEE, symObjAddr: 0x71CC, symBinAddr: 0x9B60C, symSize: 0x284 }
  - { offset: 0x41C85D, size: 0x8, addend: 0x0, symName: __ZNSt3__16vectorI16mtmd_input_chunkNS_9allocatorIS1_EEE5eraseB9nqe210106ENS_11__wrap_iterIPKS1_EE, symObjAddr: 0x7450, symBinAddr: 0x9B890, symSize: 0x114 }
  - { offset: 0x41CDF6, size: 0x8, addend: 0x0, symName: __ZN20clip_image_f32_batchaSEOS_, symObjAddr: 0x75F4, symBinAddr: 0x9BA34, symSize: 0xA4 }
  - { offset: 0x41D114, size: 0x8, addend: 0x0, symName: __ZNSt3__16vectorI16mtmd_input_chunkNS_9allocatorIS1_EEED1B9nqe210106Ev, symObjAddr: 0x7564, symBinAddr: 0x9B9A4, symSize: 0x90 }
  - { offset: 0x41D459, size: 0x8, addend: 0x0, symName: __ZN14mtmd_tokenizer27mtmd_tokenize_text_internalEPK11llama_vocabRKNSt3__112basic_stringIcNS3_11char_traitsIcEENS3_9allocatorIcEEEEbb, symObjAddr: 0x77FC, symBinAddr: 0x9BBC0, symSize: 0x1DC }
  - { offset: 0x41E021, size: 0x8, addend: 0x0, symName: __ZNSt3__16vectorI16mtmd_input_chunkNS_9allocatorIS1_EEE12__move_rangeEPS1_S5_S5_, symObjAddr: 0x7AF0, symBinAddr: 0x9BD9C, symSize: 0x124 }
  - { offset: 0x41E431, size: 0x8, addend: 0x0, symName: __ZNSt3__114__split_bufferI16mtmd_input_chunkRNS_9allocatorIS1_EEE12emplace_backIJS1_EEEvDpOT_, symObjAddr: 0x7C14, symBinAddr: 0x9BEC0, symSize: 0x280 }
  - { offset: 0x41EE0B, size: 0x8, addend: 0x0, symName: __ZNSt3__16vectorI16mtmd_input_chunkNS_9allocatorIS1_EEE26__swap_out_circular_bufferERNS_14__split_bufferIS1_RS3_EEPS1_, symObjAddr: 0x7E94, symBinAddr: 0x9C140, symSize: 0x1C4 }
  - { offset: 0x41EE21, size: 0x8, addend: 0x0, symName: __ZNSt3__16vectorI16mtmd_input_chunkNS_9allocatorIS1_EEE26__swap_out_circular_bufferERNS_14__split_bufferIS1_RS3_EEPS1_, symObjAddr: 0x7E94, symBinAddr: 0x9C140, symSize: 0x1C4 }
  - { offset: 0x41F6F0, size: 0x8, addend: 0x0, symName: __ZNSt3__16vectorI16mtmd_input_chunkNS_9allocatorIS1_EEE20__throw_length_errorB9nqe210106Ev, symObjAddr: 0x80D4, symBinAddr: 0x9C380, symSize: 0x14 }
  - { offset: 0x41F708, size: 0x8, addend: 0x0, symName: __ZNSt3__16vectorIiNS_9allocatorIiEEE18__insert_with_sizeB9nqe210106INS_11__wrap_iterIPKiEES8_EENS5_IPiEES8_T_T0_l, symObjAddr: 0x80E8, symBinAddr: 0x9C394, symSize: 0x51C }
  - { offset: 0x41F713, size: 0x8, addend: 0x0, symName: __ZNSt3__114__split_bufferI16mtmd_input_chunkRNS_9allocatorIS1_EEED1Ev, symObjAddr: 0x8058, symBinAddr: 0x9C304, symSize: 0x7C }
  - { offset: 0x41FA80, size: 0x8, addend: 0x0, symName: __ZNSt3__16vectorIiNS_9allocatorIiEEE18__insert_with_sizeB9nqe210106INS_11__wrap_iterIPKiEES8_EENS5_IPiEES8_T_T0_l, symObjAddr: 0x80E8, symBinAddr: 0x9C394, symSize: 0x51C }
  - { offset: 0x420550, size: 0x8, addend: 0x0, symName: __ZNK20clip_image_f32_batch5cloneEv, symObjAddr: 0x8604, symBinAddr: 0x9C8B0, symSize: 0x230 }
  - { offset: 0x42086D, size: 0x8, addend: 0x0, symName: __ZNSt3__16vectorINS_12basic_stringIcNS_11char_traitsIcEENS_9allocatorIcEEEENS4_IS6_EEE20__throw_length_errorB9nqe210106Ev, symObjAddr: 0x6F5C, symBinAddr: 0x9B428, symSize: 0x14 }
  - { offset: 0x420885, size: 0x8, addend: 0x0, symName: __ZNSt3__112basic_stringIcNS_11char_traitsIcEENS_9allocatorIcEEE20__throw_out_of_rangeB9nqe210106Ev, symObjAddr: 0x6F70, symBinAddr: 0x9B43C, symSize: 0x14 }
  - { offset: 0x4208F1, size: 0x8, addend: 0x0, symName: __ZNSt3__114__split_bufferINS_12basic_stringIcNS_11char_traitsIcEENS_9allocatorIcEEEERNS4_IS6_EEED1Ev, symObjAddr: 0x6EF8, symBinAddr: 0x9B3C4, symSize: 0x64 }
  - { offset: 0x420AD6, size: 0x8, addend: 0x0, symName: __ZNSt12out_of_rangeC1B9nqe210106EPKc, symObjAddr: 0x6FD4, symBinAddr: 0x9B4A0, symSize: 0x24 }
  - { offset: 0x420B7B, size: 0x8, addend: 0x0, symName: __ZNSt3__16vectorINS_10unique_ptrI14clip_image_f3222clip_image_f32_deleterEENS_9allocatorIS4_EEE9push_backB9nqe210106EOS4_, symObjAddr: 0x76CC, symBinAddr: 0x9BAD8, symSize: 0xE8 }
  - { offset: 0x4211CC, size: 0x8, addend: 0x0, symName: __ZN14mtmd_tokenizer27mtmd_tokenize_text_internalEPK11llama_vocabRKNSt3__112basic_stringIcNS3_11char_traitsIcEENS3_9allocatorIcEEEEbb, symObjAddr: 0x77FC, symBinAddr: 0x9BBC0, symSize: 0x1DC }
  - { offset: 0x421690, size: 0x8, addend: 0x0, symName: __ZNSt3__16vectorI16mtmd_input_chunkNS_9allocatorIS1_EEE12__move_rangeEPS1_S5_S5_, symObjAddr: 0x7AF0, symBinAddr: 0x9BD9C, symSize: 0x124 }
  - { offset: 0x4229B3, size: 0x8, addend: 0x0, symName: __ZNSt3__16vectorI16mtmd_input_chunkNS_9allocatorIS1_EEE26__swap_out_circular_bufferERNS_14__split_bufferIS1_RS3_EE, symObjAddr: 0x9050, symBinAddr: 0x9CDBC, symSize: 0x108 }
  - { offset: 0x423E8C, size: 0x8, addend: 0x0, symName: __GLOBAL__sub_I_mtmd.cpp, symObjAddr: 0xA220, symBinAddr: 0x9D4F8, symSize: 0xA58 }
...
